MODULE windows x86 87AD7C16DA6E49008589AA65189E2D091 pdb_pdata_in_exe.pdb
INFO CODE_ID 56DEC81817000 pdb_pdata_in_exe.exe
FUNC 1000 5d 0 __vcrt_trace_logging_provider::TraceLoggingRegister(__vcrt_trace_logging_provider::_TlgProvider_t const *,_GUID const *,void (*)(_GUID const *,unsigned long,unsigned char,unsigned __int64,unsigned __int64,_EVENT_FILTER_DESCRIPTOR *,void *),void *)
FUNC 105d 2b 0 __vcrt_trace_logging_provider::TraceLoggingSetInformation(__vcrt_trace_logging_provider::_TlgProvider_t const *,_EVENT_INFO_CLASS,void *,unsigned long)
FUNC 1088 1f 0 __vcrt_trace_logging_provider::TraceLoggingUnregister(__vcrt_trace_logging_provider::_TlgProvider_t const *)
FUNC 10a7 38 0 __vcrt_trace_logging_provider::_TlgCreateSz(_EVENT_DATA_DESCRIPTOR *,char const *)
FUNC 10df 44 0 __vcrt_trace_logging_provider::_TlgCreateWsz(_EVENT_DATA_DESCRIPTOR *,wchar_t const *)
FUNC 1123 78 0 __vcrt_trace_logging_provider::_TlgEnableCallback(_GUID const *,unsigned long,unsigned char,unsigned __int64,unsigned __int64,_EVENT_FILTER_DESCRIPTOR *,void *)
FUNC 119b 3c 0 __vcrt_trace_logging_provider::_TlgKeywordOn(__vcrt_trace_logging_provider::_TlgProvider_t const *,unsigned __int64)
FUNC 11d7 88 0 __vcrt_trace_logging_provider::_TlgWrite(__vcrt_trace_logging_provider::_TlgProvider_t const *,void const *,_GUID const *,_GUID const *,unsigned int,_EVENT_DATA_DESCRIPTOR *)
FUNC 1260 a 0 google_breakpad::j
FUNC 1270 a 0 google_breakpad::i
FUNC 1280 54 0 main
FUNC 12e0 21 0 google_breakpad::C::C()
FUNC 1310 14 0 google_breakpad::C::~C()
FUNC 1330 2e 0 google_breakpad::C::`scalar deleting destructor'(unsigned int)
FUNC 1360 1e 0 google_breakpad::C::f()
FUNC 1380 10 0 google_breakpad::C::g()
FUNC 1390 7 0 google_breakpad::C::h(google_breakpad::C const &)
FUNC 13a0 16 0 google_breakpad::C::set_member(int)
FUNC 13b6 e 0 operator delete(void *,unsigned int)
FUNC 13c4 23 0 type_info::`scalar deleting destructor'(unsigned int)
FUNC 13e7 9b 0 pre_c_initialization
FUNC 1482 8 0 post_pgo_initialization
FUNC 148a 12 0 pre_cpp_initialization
FUNC 149c 17c 0 __scrt_common_main_seh
FUNC 1618 a 0 mainCRTStartup
FUNC 1622 5 0 operator delete(void *)
FUNC 1627 1d 0 __crt_fast_encode_pointer<void (**)(void)>(void (** const)(void))
FUNC 1644 44 0 find_pe_section
FUNC 1688 35 0 __scrt_acquire_startup_lock
FUNC 16bd 39 0 __scrt_initialize_crt
FUNC 16f6 97 0 __scrt_initialize_onexit_tables
FUNC 178d 8d 0 __scrt_is_nonwritable_in_current_image
FUNC 181a 1d 0 __scrt_release_startup_lock
FUNC 1837 28 0 __scrt_uninitialize_crt
FUNC 185f 3b 0 _onexit
FUNC 189a 15 0 atexit
FUNC 18af 9c 0 __security_init_cookie
FUNC 194b 3 4 _matherr
FUNC 194e 4 0 _get_startup_argv_mode
FUNC 1952 3 0 _get_startup_commit_mode
FUNC 1955 6 0 _get_startup_file_mode
FUNC 195b 3 0 _get_startup_new_mode
FUNC 195e 3 0 _get_startup_thread_locale_mode
FUNC 1961 c 0 __scrt_initialize_type_info()
FUNC 196d 21 0 _initialize_default_precision
FUNC 198e 1 0 _initialize_invalid_parameter_handler
FUNC 198f 1 0 _initialize_denormal_control
FUNC 1990 6 0 __local_stdio_printf_options
FUNC 1996 6 0 __local_stdio_scanf_options
FUNC 199c 1d 0 __scrt_initialize_default_local_stdio_options
FUNC 19b9 c 0 __scrt_is_user_matherr_present
FUNC 19c5 6 0 __scrt_get_dyn_tls_init_callback
FUNC 19cb 6 0 __scrt_get_dyn_tls_dtor_callback
FUNC 19d1 11b 0 __scrt_fastfail
FUNC 1aec 3 0 __scrt_initialize_winrt
FUNC 1aef 44 0 __scrt_is_managed_app
FUNC 1b33 c 0 __scrt_set_unhandled_exception_filter
FUNC 1b3f 41 4 __scrt_unhandled_exception_filter
FUNC 1b80 8 4 _crt_debugger_hook
FUNC 1b88 2b 0 _RTC_Initialize
FUNC 1bb3 2b 0 _RTC_Terminate
FUNC 1bde 6 0 _guard_check_icall
FUNC 1bf0 46 0 _SEH_prolog4
FUNC 1c36 15 0 _SEH_epilog4
FUNC 1c4b 1a1 0 __isa_available_init
FUNC 1dec c 0 __scrt_is_ucrt_dll_in_use
FUNC 1df8 1 0 _guard_check_icall_nop
FUNC 1df9 11 0 __security_check_cookie
FUNC 1e0a 28 0 __raise_securityfailure
FUNC 1e32 fb 0 __report_gsfailure
PUBLIC 1f2e 4 IsProcessorFeaturePresent
FUNC 1f34 1 0 _TlgDefineProvider_annotation__Tlg_Microsoft_CRTProviderProv
FUNC 1f35 3a 0 __telemetry_getfilename
FUNC 1f6f 9c 0 __telemetry_main_invoke_trigger
FUNC 200b 9c 0 __telemetry_main_return_trigger
FUNC 20a7 13 0 __vcrt_initialize_telemetry_provider
FUNC 20ba c 0 __vcrt_uninitialize_telemetry_provider
FUNC 20d0 32 0 ValidateLocalCookies
FUNC 2110 15a 0 _except_handler4
FUNC 226a 2e 0 __vcrt_initialize
FUNC 2298 24 0 __vcrt_uninitialize
FUNC 22c0 15a 0 memset
FUNC 241a 1d 0 __crt_fast_encode_pointer<void *>(void * const)
FUNC 2437 a0 0 try_get_function
FUNC 24d7 81 0 try_get_module
FUNC 2558 40 0 __vcrt_EventRegister
FUNC 2598 43 0 __vcrt_EventSetInformation
FUNC 25db 3a 0 __vcrt_EventUnregister
FUNC 2615 49 0 __vcrt_EventWriteTransfer
FUNC 265e 3a 0 __vcrt_FlsAlloc
FUNC 2698 3a 0 __vcrt_FlsFree
FUNC 26d2 3d 0 __vcrt_FlsSetValue
FUNC 270f 46 0 __vcrt_InitializeCriticalSectionEx
FUNC 2755 24 0 __vcrt_initialize_winapi_thunks
FUNC 2779 32 0 __vcrt_uninitialize_winapi_thunks
FUNC 27b0 90 0 _local_unwind4
FUNC 2840 46 0 _unwind_handler4
FUNC 2886 28 4 _seh_longjmp_unwind4
FUNC 28ae 17 0 _EH4_CallFilterFunc
FUNC 28c5 19 0 _EH4_TransferToHandler
FUNC 28de 19 0 _EH4_GlobalUnwind2
FUNC 28f7 17 8 _EH4_LocalUnwind
FUNC 290e 1 4 __except_validate_context_record
FUNC 290f 1 4 __except_validate_jump_buffer
FUNC 2910 1c 4 __vcrt_freefls
FUNC 292c 33 0 __vcrt_initialize_ptd
FUNC 295f 1b 0 __vcrt_uninitialize_ptd
FUNC 297a 3c 0 __vcrt_initialize_locks
FUNC 29b6 2f 0 __vcrt_uninitialize_locks
FUNC 29e5 1d 0 __vcrt_initialize_pure_virtual_call_handler
FUNC 2a10 20 0 _global_unwind2
FUNC 2a30 45 0 __unwind_handler
FUNC 2a75 84 0 _local_unwind2
FUNC 2af9 23 0 _abnormal_termination
FUNC 2b1c 9 0 _NLG_Notify1
FUNC 2b25 1f 0 _NLG_Notify
PUBLIC 2b3c 0 _NLG_Dispatch
FUNC 2b44 3 0 _NLG_Call
PUBLIC 2b46 0 _NLG_Return2
FUNC 2b47 173 0 _seh_filter_exe
FUNC 2cba 6 0 _query_app_type
FUNC 2cc0 f 0 _set_app_type
FUNC 2ccf 1f 0 __crt_fast_encode_pointer<int (*)(_exception *)>(int (*const)(_exception *))
FUNC 2cee 31 0 __crt_state_management::dual_state_global<int (*)(_exception *)>::initialize(int (*const)(_exception *))
FUNC 2d1f 19 0 __acrt_has_user_matherr
FUNC 2d38 14 0 __acrt_initialize_user_matherr
FUNC 2d4c 49 0 __acrt_invoke_user_matherr
FUNC 2d95 15 0 __setusermatherr
FUNC 2daa 124 0 common_configure_argv<char>
FUNC 2ece 175 0 parse_command_line<char>
FUNC 3043 55 0 __acrt_allocate_buffer_for_argv
FUNC 3098 b 0 _configure_narrow_argv
FUNC 30a3 2f 0 common_get_or_create_environment_nolock<char>
FUNC 30d2 59 0 common_initialize_environment_nolock<char>
FUNC 312b d1 0 create_environment<char>
FUNC 31fc 2f 0 free_environment<char>
FUNC 322b 2f 0 free_environment<wchar_t>
FUNC 325a 7f 0 initialize_environment_by_cloning_nolock<char>
FUNC 32d9 40 0 __crt_state_management::dual_state_global<char * *>::uninitialize<void (&)(char * * &)>(void (&)(char * * &))
FUNC 3319 40 0 __crt_state_management::dual_state_global<wchar_t * *>::uninitialize<void (&)(wchar_t * * &)>(void (&)(wchar_t * * &))
FUNC 3359 1b 0 uninitialize_environment_internal<char>
FUNC 3374 1b 0 uninitialize_environment_internal<wchar_t>
FUNC 338f 31 0 __crt_state_management::dual_state_global<char * *>::initialize(char * * const)
FUNC 33c0 5 0 __dcrt_get_or_create_narrow_environment_nolock
FUNC 33c5 37 0 __dcrt_uninitialize_environments_nolock
FUNC 33fc 14 0 _get_initial_narrow_environment
FUNC 3410 5 0 _initialize_narrow_environment
FUNC 3415 5c 0 _initterm
FUNC 3471 45 0 _initterm_e
FUNC 34b6 1f 0 __crt_fast_encode_pointer<void (*)(void *,unsigned long,void *)>(void (*const)(void *,unsigned long,void *))
FUNC 34d5 13 0 atexit_exception_filter
FUNC 34e8 119 0 common_exit
FUNC 3601 41 0 exit_or_terminate_process
FUNC 3642 44 0 is_managed_app
FUNC 3686 6a 0 try_cor_exit_process
FUNC 36f0 f 0 __acrt_initialize_thread_local_exit_callback
FUNC 36ff f 0 _c_exit
FUNC 370e f 0 _cexit
FUNC 371d 16 0 _exit
FUNC 3733 38 0 _register_thread_local_exe_atexit_callback
FUNC 376b 16 0 exit
FUNC 3781 3d 0 _set_fmode
FUNC 37be 19 0 __acrt_initialize_command_line
FUNC 37d7 3 4 __acrt_uninitialize_command_line
FUNC 37da 6 0 __p___argc
FUNC 37e0 6 0 __p___argv
FUNC 37e6 49 0 __crt_seh_guarded_call<void>::operator()<<lambda_4393c4b5ef78814305fd0c1b31d2e9a8>,<lambda_85fa512c59a4d94d4a89f575eefd92a6> &,<lambda_8f70eeb8060c49130c088d3137313000> >(<lambda_4393c4b5ef78814305fd0c1b31d2e9a8> &&,<lambda_85fa512c59a4d94d4a89f575eefd92a6> &,<lambda_8f70eeb8060c49130c088d3137313000> &&)
FUNC 382f 28 0 __acrt_lock_and_call<<lambda_85fa512c59a4d94d4a89f575eefd92a6> >(__acrt_lock_id,<lambda_85fa512c59a4d94d4a89f575eefd92a6> &&)
FUNC 3857 2f 4 __crt_state_management::dual_state_global<__crt_locale_data *>::uninitialize<<lambda_6b129e2e150a224552ea232eca9364df> >(<lambda_6b129e2e150a224552ea232eca9364df> &&)
FUNC 3886 b 0 __acrt_set_locale_changed
FUNC 3891 17 0 __acrt_uninitialize_locale
FUNC 38a8 62 0 _configthreadlocale
FUNC 390a 6 0 _query_new_mode
FUNC 3910 2f 0 _set_new_mode
FUNC 393f 6 0 __p__commode
FUNC 3945 5 0 free
FUNC 394a 51 0 __crt_seh_guarded_call<int>::operator()<<lambda_800076c951b434888f4765a74a194fcc>,<lambda_4e60a939b0d047cfe11ddc22648dfba9> &,<lambda_6dbb1268764f43b569ce7b67e331d33a> >(<lambda_800076c951b434888f4765a74a194fcc> &&,<lambda_4e60a939b0d047cfe11ddc22648dfba9> &,<lambda_6dbb1268764f43b569ce7b67e331d33a> &&)
FUNC 399b 51 0 __crt_seh_guarded_call<int>::operator()<<lambda_995298e7d72eb4c2aab26c0585b3abe5>,<lambda_275893d493268fdec8709772e3fcec0e> &,<lambda_293819299cbf9a7022e18b56a874bb5c> >(<lambda_995298e7d72eb4c2aab26c0585b3abe5> &&,<lambda_275893d493268fdec8709772e3fcec0e> &,<lambda_293819299cbf9a7022e18b56a874bb5c> &&)
FUNC 39ec 28 0 __acrt_lock_and_call<<lambda_275893d493268fdec8709772e3fcec0e> >(__acrt_lock_id,<lambda_275893d493268fdec8709772e3fcec0e> &&)
FUNC 3a14 28 0 __acrt_lock_and_call<<lambda_4e60a939b0d047cfe11ddc22648dfba9> >(__acrt_lock_id,<lambda_4e60a939b0d047cfe11ddc22648dfba9> &&)
FUNC 3a3c 1f 0 __crt_fast_encode_pointer<int (*)(void)>(int (*const)(void))
FUNC 3a5b 120 0 <lambda_275893d493268fdec8709772e3fcec0e>::operator()
FUNC 3b7b 141 0 <lambda_4e60a939b0d047cfe11ddc22648dfba9>::operator()
FUNC 3cbc 16 0 _crt_atexit
FUNC 3cd2 1d 0 _execute_onexit_table
FUNC 3cef 3d 0 _initialize_onexit_table
FUNC 3d2c 24 0 _register_onexit_function
FUNC 3d50 12 0 initialize_global_variables
FUNC 3d62 1a 0 initialize_c
FUNC 3d7c 3 4 uninitialize_c
FUNC 3d7f 3 0 initialize_environment
FUNC 3d82 8 4 uninitialize_environment
FUNC 3d8a 3 0 initialize_global_state_isolation
FUNC 3d8d 3 4 uninitialize_global_state_isolation
FUNC 3d90 3d 0 initialize_pointers
FUNC 3dcd 9 4 uninitialize_vcruntime
FUNC 3dd6 65 0 uninitialize_allocated_memory
FUNC 3e3b 3 4 report_memory_leaks
FUNC 3e3e 4f 4 __crt_state_management::dual_state_global<__crt_multibyte_data *>::uninitialize<<lambda_30a498feb8538b5c3153c22026e33470> >(<lambda_30a498feb8538b5c3153c22026e33470> &&)
FUNC 3e8d 31 0 __crt_state_management::dual_state_global<__crt_locale_data *>::initialize(__crt_locale_data * const)
FUNC 3ebe 12 0 __acrt_initialize
FUNC 3ed0 12 4 __acrt_uninitialize
FUNC 3ee2 5f 0 _controlfp_s
FUNC 3f41 3c 0 terminate
FUNC 3f7d 3a 0 _free_base
FUNC 3fb7 4e 0 _malloc_base
FUNC 4005 5a 0 strcpy_s
FUNC 405f 43 0 abort
FUNC 40a2 5d 0 _calloc_base
FUNC 40ff 83 0 _LocaleUpdate::_LocaleUpdate(__crt_locale_pointers * const)
FUNC 4182 2a 0 _chvalidchk_l
FUNC 41ac 33 0 _ischartype_l
FUNC 41df 50 0 __crt_seh_guarded_call<void>::operator()<<lambda_3518db117f0e7cdb002338c5d3c47b6c>,<lambda_b2ea41f6bbb362cd97d94c6828d90b61> &,<lambda_abdedf541bb04549bc734292b4a045d4> >(<lambda_3518db117f0e7cdb002338c5d3c47b6c> &&,<lambda_b2ea41f6bbb362cd97d94c6828d90b61> &,<lambda_abdedf541bb04549bc734292b4a045d4> &&)
FUNC 422f 61 0 __crt_seh_guarded_call<void>::operator()<<lambda_51b6e8b1eb166f2a3faf91f424b38130>,<lambda_6250bd4b2a391816dd638c3bf72b0bcb> &,<lambda_0b5a4a3e68152e1d9b943535f5f47bed> >(<lambda_51b6e8b1eb166f2a3faf91f424b38130> &&,<lambda_6250bd4b2a391816dd638c3bf72b0bcb> &,<lambda_0b5a4a3e68152e1d9b943535f5f47bed> &&)
FUNC 4290 4b 0 __crt_seh_guarded_call<void>::operator()<<lambda_5b71d36f03204c0beab531769a5b5694>,<lambda_be2b3da3f62db62e9dad5dc70221a656> &,<lambda_8f9ce462984622f9bf76b59e2aaaf805> >(<lambda_5b71d36f03204c0beab531769a5b5694> &&,<lambda_be2b3da3f62db62e9dad5dc70221a656> &,<lambda_8f9ce462984622f9bf76b59e2aaaf805> &&)
FUNC 42db 48 0 __crt_seh_guarded_call<void>::operator()<<lambda_9df27f884b057bc3edfc946cb5b7cf47>,<lambda_e69574bed617af4e071282c136b37893> &,<lambda_cc0d902bcbbeb830f749456577db4721> >(<lambda_9df27f884b057bc3edfc946cb5b7cf47> &&,<lambda_e69574bed617af4e071282c136b37893> &,<lambda_cc0d902bcbbeb830f749456577db4721> &&)
FUNC 4323 28 0 __acrt_lock_and_call<<lambda_6250bd4b2a391816dd638c3bf72b0bcb> >(__acrt_lock_id,<lambda_6250bd4b2a391816dd638c3bf72b0bcb> &&)
FUNC 434b 28 0 __acrt_lock_and_call<<lambda_b2ea41f6bbb362cd97d94c6828d90b61> >(__acrt_lock_id,<lambda_b2ea41f6bbb362cd97d94c6828d90b61> &&)
FUNC 4373 28 0 __acrt_lock_and_call<<lambda_be2b3da3f62db62e9dad5dc70221a656> >(__acrt_lock_id,<lambda_be2b3da3f62db62e9dad5dc70221a656> &&)
FUNC 439b 28 0 __acrt_lock_and_call<<lambda_e69574bed617af4e071282c136b37893> >(__acrt_lock_id,<lambda_e69574bed617af4e071282c136b37893> &&)
FUNC 43c3 79 0 construct_ptd
FUNC 443c 21 0 destroy_fls
FUNC 445d a9 0 destroy_ptd
FUNC 4506 4b 0 replace_current_thread_locale_nolock
FUNC 4551 84 0 __acrt_getptd
FUNC 45d5 6a 0 __acrt_getptd_head
FUNC 463f 85 0 __acrt_getptd_noexit
FUNC 46c4 2c 0 __acrt_initialize_ptd
FUNC 46f0 1a 4 __acrt_uninitialize_ptd
FUNC 470a 31 0 __crt_state_management::dual_state_global<void (*)(wchar_t const *,wchar_t const *,wchar_t const *,unsigned int,unsigned int)>::initialize(void (*const)(wchar_t const *,wchar_t const *,wchar_t const *,unsigned int,unsigned int))
FUNC 473b 13b 0 __acrt_call_reportfault
FUNC 4876 14 0 __acrt_initialize_invalid_parameter_handler
FUNC 488a 7b 0 _invalid_parameter
FUNC 4905 10 0 _invalid_parameter_noinfo
FUNC 4915 33 14 _invoke_watson
FUNC 4948 43 0 __acrt_errno_from_os_error
FUNC 498b 23 0 __acrt_errno_map_os_error
FUNC 49ae 13 0 __doserrno
FUNC 49c1 13 0 _errno
FUNC 49d4 18 0 <lambda_b68abde6228dcb3e21f999edca8a512a>::<helper_func_cdecl>
FUNC 49ec 190 0 common_expand_argv_wildcards<char>
FUNC 4b7c 96 0 copy_and_add_argument_to_buffer<char>
FUNC 4c12 184 0 expand_argument_wildcards<char>
FUNC 4d96 25 0 `anonymous namespace'::argument_list<char>::~argument_list<char>()
FUNC 4dbb 35 0 `anonymous namespace'::argument_list<char>::append(char * const)
FUNC 4df0 87 0 `anonymous namespace'::argument_list<char>::expand_if_necessary()
FUNC 4e77 b 0 __acrt_expand_narrow_argv_wildcards
FUNC 4e82 43 0 __crt_seh_guarded_call<void>::operator()<<lambda_e87a3c71dae7d386050572e4b92e46dc>,<lambda_46505630740668582523e1a4ac1f87da> &,<lambda_946b9e807def97ded8a024f3159c1ffa> >(<lambda_e87a3c71dae7d386050572e4b92e46dc> &&,<lambda_46505630740668582523e1a4ac1f87da> &,<lambda_946b9e807def97ded8a024f3159c1ffa> &&)
FUNC 4ec5 28 0 __acrt_lock_and_call<<lambda_46505630740668582523e1a4ac1f87da> >(__acrt_lock_id,<lambda_46505630740668582523e1a4ac1f87da> &&)
FUNC 4eed 83 0 <lambda_46505630740668582523e1a4ac1f87da>::operator()
FUNC 4f70 3e 0 CPtoLocaleName
FUNC 4fae 73 0 getSystemCP
FUNC 5021 31 0 __crt_state_management::dual_state_global<__crt_multibyte_data *>::initialize(__crt_multibyte_data * const)
FUNC 5052 65 0 setSBCS
FUNC 50b7 194 0 setSBUpLow
FUNC 524b 10d 0 setmbcp_internal
FUNC 5358 93 0 update_thread_multibyte_data_internal
FUNC 53eb 4d 0 __acrt_initialize_multibyte
FUNC 5438 14 0 __acrt_update_thread_multibyte_data
FUNC 544c 1f1 0 _setmbcp_nolock
FUNC 563d 81 0 memcpy_s
FUNC 56be 59 0 x_ismbbtype_l
FUNC 5717 18 0 _ismbblead
FUNC 572f 37 0 find_end_of_double_null_terminated_sequence
FUNC 5766 83 0 __dcrt_get_narrow_environment_from_os
FUNC 57e9 23b 0 common_set_variable_in_environment_nolock<char>
FUNC 5a24 b1 0 copy_environment<char>
FUNC 5ad5 54 0 find_in_environment_nolock<char>
FUNC 5b29 b 0 __dcrt_set_variable_in_narrow_environment_nolock
FUNC 5b34 41 0 __acrt_initialize_locks
FUNC 5b75 17 0 __acrt_lock
FUNC 5b8c 31 4 __acrt_uninitialize_locks
FUNC 5bbd 17 0 __acrt_unlock
FUNC 5bd4 1a 0 try_get_CompareStringEx
FUNC 5bee 1a 0 try_get_LCMapStringEx
FUNC 5c08 1a 0 try_get_LocaleNameToLCID
FUNC 5c22 9c 0 try_get_function
FUNC 5cbe 7b 0 try_get_module
FUNC 5d39 74 24 __acrt_CompareStringEx
FUNC 5dad 56 4 __acrt_FlsAlloc
FUNC 5e03 56 4 __acrt_FlsFree
FUNC 5e59 56 4 __acrt_FlsGetValue
FUNC 5eaf 59 8 __acrt_FlsSetValue
FUNC 5f08 62 c __acrt_InitializeCriticalSectionEx
FUNC 5f6a 74 24 __acrt_LCMapStringEx
FUNC 5fde 48 8 __acrt_LocaleNameToLCID
FUNC 6026 26 0 __acrt_initialize_winapi_thunks
FUNC 604c 87 0 __acrt_is_packaged_app
FUNC 60d3 36 0 __acrt_uninitialize_winapi_thunks
FUNC 6109 7a 0 __acrt_lowio_create_handle_array
FUNC 6183 35 0 __acrt_lowio_destroy_handle_array
FUNC 61b8 98 0 __acrt_lowio_ensure_fh_exists
FUNC 6250 23 0 __acrt_lowio_lock_fh
FUNC 6273 23 0 __acrt_lowio_unlock_fh
FUNC 6296 91 0 _free_osfhnd
FUNC 6327 6a 0 _get_osfhandle
FUNC 6391 b6 0 initialize_inherited_file_handles_nolock
FUNC 6447 b6 0 initialize_stdio_handles_nolock
FUNC 64fd 56 0 __acrt_initialize_lowio
FUNC 6553 2c 4 __acrt_uninitialize_lowio
FUNC 657f 26 0 __pctype_func
FUNC 65a5 fe 0 __acrt_locale_free_monetary
FUNC 66a3 69 0 __acrt_locale_free_numeric
FUNC 670c 3c 0 free_crt_array_internal
FUNC 6748 e4 0 __acrt_locale_free_time
FUNC 682c 11d 0 __acrt_GetStringTypeA
FUNC 6949 20 0 _freea_crt
FUNC 6969 7d 0 __acrt_add_locale_ref
FUNC 69e6 14a 0 __acrt_free_locale
FUNC 6b30 29 0 __acrt_locale_add_lc_time_reference
FUNC 6b59 30 0 __acrt_locale_free_lc_time_if_unreferenced
FUNC 6b89 29 0 __acrt_locale_release_lc_time_reference
FUNC 6bb2 81 0 __acrt_release_locale_ref
FUNC 6c33 77 0 __acrt_update_thread_locale_data
FUNC 6caa 50 0 _updatetlocinfoEx_nolock
FUNC 6cfa b 0 _recalloc
FUNC 6d05 6d 0 _recalloc_base
FUNC 6d72 11 0 __acrt_initialize_heap
FUNC 6d83 a 4 __acrt_uninitialize_heap
FUNC 6d8d 83 0 __acrt_execute_initializers
FUNC 6e10 4d 0 __acrt_execute_uninitializers
FUNC 6e5d 31 0 __crt_state_management::dual_state_global<int (*)(unsigned int)>::initialize(int (*const)(unsigned int))
FUNC 6e8e 14 0 __acrt_initialize_new_handler
FUNC 6ea2 44 0 _callnewh
FUNC 6ee6 52 0 _query_new_handler
FUNC 6f38 5a 0 __crt_seh_guarded_call<void (*)(int)>::operator()<<lambda_a048d3beccc847880fc8490e18b82769>,<lambda_ec61778202f4f5fc7e7711acc23c3bca> &,<lambda_f7496a158712204296dd6628a163878e> >(<lambda_a048d3beccc847880fc8490e18b82769> &&,<lambda_ec61778202f4f5fc7e7711acc23c3bca> &,<lambda_f7496a158712204296dd6628a163878e> &&)
FUNC 6f92 28 0 __acrt_lock_and_call<<lambda_ec61778202f4f5fc7e7711acc23c3bca> >(__acrt_lock_id,<lambda_ec61778202f4f5fc7e7711acc23c3bca> &&)
FUNC 6fba 42 0 get_global_action_nolock
FUNC 6ffc 31 0 __crt_state_management::dual_state_global<void (*)(int)>::initialize(void (*const)(int))
FUNC 702d 28 0 siglookup
FUNC 7055 17 0 __acrt_get_sigabrt_handler
FUNC 706c 3b 0 __acrt_initialize_signal_handlers
FUNC 70a7 9 0 __fpecode
FUNC 70b0 208 0 raise
FUNC 72b8 ab 0 __hw_cw_sse2
FUNC 7363 302 0 _control87
FUNC 7665 99 0 _hw_cw
FUNC 76fe 14a 0 common_tox_l<&internal_isupper_l,&internal_map_lower>
FUNC 7848 1d 0 internal_isupper_l
FUNC 7865 1a 0 _tolower_l
FUNC 787f fa 0 _mbtowc_l
FUNC 7979 1a 0 mbtowc
FUNC 7993 2d 0 __acrt_update_locale_info
FUNC 79c0 2d 0 __acrt_update_multibyte_info
FUNC 79ed 26 0 _fileno
FUNC 7a13 c8 0 __acrt_initialize_stdio
FUNC 7adb 4c 0 __acrt_uninitialize_stdio
FUNC 7b27 14 0 _lock_file
FUNC 7b3b 14 0 _unlock_file
FUNC 7b4f d2 0 _isctype_l
FUNC 7c30 96 0 shortsort
FUNC 7cd0 39 0 swap
FUNC 7d10 39a 0 qsort
FUNC 80aa b1 0 common_tcsncpy_s<char>
FUNC 815b b 0 strncpy_s
FUNC 8170 40 0 strpbrk
FUNC 81b0 17 0 _mbsdec
FUNC 81c7 8d 0 _mbsdec_l
FUNC 8254 f 0 initialize_multibyte
FUNC 8263 21d 0 __acrt_LCMapStringA_stat
FUNC 8480 4b 0 __acrt_LCMapStringA
FUNC 84cb 29 0 _strnicoll
FUNC 84f4 ca 0 _strnicoll_l
FUNC 85be bc 0 GetTableIndexFromLocaleName
FUNC 867a 2c 0 __acrt_DownlevelLocaleNameToLCID
FUNC 86a6 33 0 _msize
FUNC 86d9 69 0 _realloc_base
FUNC 8742 56 0 _isatty
FUNC 8798 66 0 __acrt_stdio_flush_nolock
FUNC 87fe 47 0 _fflush_nolock
FUNC 8845 9 0 _flushall
FUNC 884e d8 0 common_flush_all
FUNC 8926 76 0 __set_fpsr_sse2
FUNC 899c 13 0 _clrfp
FUNC 89af 2c 0 _ctrlfp
FUNC 89db 5b 0 _set_statfp
FUNC 8a36 12 0 _statfp
FUNC 8a48 39 0 _isleadbyte_l
FUNC 8a81 a0 0 _fcloseall
FUNC 8b21 3e 0 __acrt_stdio_free_buffer_nolock
FUNC 8b5f 1c 0 __strncnt
FUNC 8b7b 6c 0 _strnicmp
FUNC 8be7 b7 0 _strnicmp_l
FUNC 8c9e 2a8 0 InternalCompareStringA
FUNC 8f46 48 0 __acrt_CompareStringA
FUNC 8f8e 98 0 __crt_seh_guarded_call<int>::operator()<<lambda_61cee617f5178ae960314fd4d05640a0>,<lambda_6978c1fb23f02e42e1d9e99668cc68aa> &,<lambda_9cd88cf8ad10232537feb2133f08c833> >(<lambda_61cee617f5178ae960314fd4d05640a0> &&,<lambda_6978c1fb23f02e42e1d9e99668cc68aa> &,<lambda_9cd88cf8ad10232537feb2133f08c833> &&)
FUNC 9026 28 0 __acrt_lowio_lock_fh_and_call<<lambda_6978c1fb23f02e42e1d9e99668cc68aa> >(int,<lambda_6978c1fb23f02e42e1d9e99668cc68aa> &&)
FUNC 904e 6f 0 _commit
FUNC 90bd 1b3 0 write_double_translated_ansi_nolock
FUNC 9270 6d 0 write_double_translated_unicode_nolock
FUNC 92dd 76 0 write_requires_double_translation_nolock
FUNC 9353 df 0 write_text_ansi_nolock
FUNC 9432 ee 0 write_text_utf16le_nolock
FUNC 9520 12d 0 write_text_utf8_nolock
FUNC 964d eb 0 _write
FUNC 9738 20c 0 _write_nolock
FUNC 9950 3f 0 log10
FUNC 9990 3b 0 _CIlog10
FUNC 99cb d5 0 _CIlog10_default
PUBLIC 99df 0 _log10_default
FUNC 9aa0 40 0 ceil
FUNC 9ae0 dd 0 _ceil_pentium4
FUNC 9bbd 7e 0 common_lseek_nolock<__int64>
FUNC 9c3b 1b 0 _lseeki64_nolock
FUNC 9c56 76 0 _fclose_nolock
FUNC 9ccc 80 0 fclose
FUNC 9d50 61 0 __ascii_strnicmp
FUNC 9db1 45 0 _putwch_nolock
FUNC 9df6 f 0 __acrt_initialize_sse2
FUNC 9e10 284 0 _CIlog10_pentium4
PUBLIC 9e28 0 _log10_pentium4
PUBLIC a0b1 0 _fFEXP
PUBLIC a108 0 _rtinfpopse
PUBLIC a10a 0 _rtinfnpopse
PUBLIC a11a 0 _fFLN
PUBLIC a1cf 0 _rtinfpop
PUBLIC a1d1 0 _rtinfnpop
PUBLIC a1ee 0 _ffexpm1
FUNC a2a0 67 0 _trandisp1
FUNC a307 8c 0 _trandisp2
PUBLIC a393 0 _rttospopde
PUBLIC a398 0 _rttospop
PUBLIC a39a 0 _rtnospop
PUBLIC a39c 0 _rttosnpop
PUBLIC a39d 0 _rtnospopde
PUBLIC a3a4 0 _rtzeropop
PUBLIC a3a6 0 _rtzeronpop
PUBLIC a3ab 0 _rtzerospop
PUBLIC a3b8 0 _rtonepop
PUBLIC a3ba 0 _rtonenpop
PUBLIC a3bf 0 _tosnan1
PUBLIC a3ea 0 _nosnan2
PUBLIC a3ec 0 _tosnan2
PUBLIC a414 0 _nan2
PUBLIC a453 0 _rtindfpop
PUBLIC a455 0 _rtindfnpop
PUBLIC a466 0 _rttosnpopde
PUBLIC a470 0 _rtatan2inf
PUBLIC a48d 0 _rtchsifneg
FUNC a4a0 15 0 _twoToTOS
FUNC a4b5 17 0 _load_CW
FUNC a4cc 19 0 _convertTOStoQNaN
FUNC a4e5 43 0 _fload_withFB
FUNC a528 16 0 _checkTOS_withFB
FUNC a53e d 0 _fast_exit
FUNC a54b 2a 0 _math_exit
FUNC a575 14 0 _check_overflow_exit
FUNC a589 a3 0 _check_range_exit
FUNC a630 17 0 _startTwoArgErrorHandling
FUNC a647 3c 0 _startOneArgErrorHandling
FUNC a683 218 0 __libm_error_support
FUNC a89b b9 0 _ceil_default
FUNC a954 82 0 __crt_seh_guarded_call<int>::operator()<<lambda_123407a5e2ac06da108355a851863b7a>,<lambda_2fe9b910cf3cbf4a0ab98a02ba45b3ec> &,<lambda_ae55bdf541ad94d75914d381c370e64d> >(<lambda_123407a5e2ac06da108355a851863b7a> &&,<lambda_2fe9b910cf3cbf4a0ab98a02ba45b3ec> &,<lambda_ae55bdf541ad94d75914d381c370e64d> &&)
FUNC a9d6 28 0 __acrt_lowio_lock_fh_and_call<<lambda_2fe9b910cf3cbf4a0ab98a02ba45b3ec> >(int,<lambda_2fe9b910cf3cbf4a0ab98a02ba45b3ec> &&)
FUNC a9fe 7f 0 _close
FUNC aa7d 9c 0 _close_nolock
FUNC ab19 3b 0 __acrt_stdio_free_stream(__crt_stdio_stream)
FUNC ab54 1f 0 __dcrt_lowio_initialize_console_output
FUNC ab73 17 0 __dcrt_terminate_console_output
FUNC ab8a 6a 0 _d_inttype
FUNC abf4 12b 0 _powhlp
FUNC ad1f 10b 0 _87except
FUNC ae2a 16 0 _frnd
FUNC ae40 34 0 _errcode
FUNC ae74 ce 0 _except1
FUNC af45 1e0 0 _handle_exc
FUNC b125 23 0 _raise_exc
FUNC b148 2f1 0 _raise_exc_ex
FUNC b439 2f 0 _set_errno_from_matherr
FUNC b468 a2 0 _umatherr
FUNC b50a d4 0 _decomp
FUNC b5de 2f 0 _set_exp
FUNC b60d 5e 0 _sptype
FUNC b66b a4 0 _fpclass
FUNC b710 43 0 _FindPESection
FUNC b760 ba 0 _IsNonwritableInCurrentImage
FUNC b820 31 0 _ValidateImageBase
FUNC b860 95 0 _aulldvrm
FUNC b900 49 0 _SEH_prolog4_GS
FUNC b949 11 0 _SEH_epilog4_GS
FUNC b960 34 0 _allmul
FUNC b9a0 2c 0 _alloca_probe_16
PUBLIC b9b6 0 _alloca_probe_8
FUNC b9d0 df 0 _alldvrm
FUNC bab0 1f 0 _aullshr
FUNC bad0 1f 0 _allshl
FUNC baf0 9 0 _ftol2_sse
FUNC baf9 13 0 _ftol2_pentium4
FUNC bb0c 1a 0 _ftol2_sse_excpt
FUNC bb30 75 0 _ftol2
FUNC bbb0 2d 0 _chkstk
PUBLIC bbde 10 RtlUnwind
PUBLIC bbe4 8 SystemFunction036
FUNC bbf0 574 0 memcpy
FUNC c170 12b 0 strchr
PUBLIC c1de 0 __from_strstr_to_strchr
FUNC c2a0 574 0 memmove
FUNC c820 137 0 strrchr
STACK WIN 4 1000 5d 8 0 10 0 0 0 1 $T0 $ebp = $eip $T0 4 + ^ = $ebp $T0 ^ = $esp $T0 8 + = 
STACK WIN 4 1007 54 1 0 10 4 0 0 1 $T0 $ebp = $eip $T0 4 + ^ = $ebp $T0 ^ = $esp $T0 8 + =  $23 $T0 4 - ^ = 
STACK WIN 4 1008 50 0 0 10 8 0 0 1 $T0 $ebp = $eip $T0 4 + ^ = $ebp $T0 ^ = $esp $T0 8 + =  $23 $T0 4 - ^ =  $24 $T0 8 - ^ = 
STACK WIN 4 105d 2b 3 0 10 0 0 0 1 $T0 $ebp = $eip $T0 4 + ^ = $ebp $T0 ^ = $esp $T0 8 + = 
STACK WIN 4 1088 1f 4 0 4 0 0 0 1 $T0 $ebp = $eip $T0 4 + ^ = $ebp $T0 ^ = $esp $T0 8 + = 
STACK WIN 4 108c 19 0 0 4 4 0 0 1 $T0 $ebp = $eip $T0 4 + ^ = $ebp $T0 ^ = $esp $T0 8 + =  $23 $T0 4 - ^ = 
STACK WIN 4 10a7 38 9 0 8 0 0 0 1 $T0 $ebp = $eip $T0 4 + ^ = $ebp $T0 ^ = $esp $T0 8 + = 
STACK WIN 4 10b0 2d 0 0 8 4 0 0 1 $T0 $ebp = $eip $T0 4 + ^ = $ebp $T0 ^ = $esp $T0 8 + =  $23 $T0 4 - ^ = 
STACK WIN 4 10df 44 8 0 8 0 0 0 1 $T0 $ebp = $eip $T0 4 + ^ = $ebp $T0 ^ = $esp $T0 8 + = 
STACK WIN 4 10e6 3b 1 0 8 4 0 0 1 $T0 $ebp = $eip $T0 4 + ^ = $ebp $T0 ^ = $esp $T0 8 + =  $23 $T0 4 - ^ = 
STACK WIN 4 10e7 34 0 0 8 8 0 0 1 $T0 $ebp = $eip $T0 4 + ^ = $ebp $T0 ^ = $esp $T0 8 + =  $23 $T0 4 - ^ =  $24 $T0 8 - ^ = 
STACK WIN 4 1123 78 3 0 24 0 0 0 1 $T0 $ebp = $eip $T0 4 + ^ = $ebp $T0 ^ = $esp $T0 8 + = 
STACK WIN 4 1134 63 0 0 24 4 0 0 1 $T0 $ebp = $eip $T0 4 + ^ = $ebp $T0 ^ = $esp $T0 8 + =  $20 $T0 4 - ^ = 
STACK WIN 4 1138 5e 0 0 24 8 0 0 1 $T0 $ebp = $eip $T0 4 + ^ = $ebp $T0 ^ = $esp $T0 8 + =  $20 $T0 4 - ^ =  $24 $T0 8 - ^ = 
STACK WIN 4 1171 24 0 0 24 c 0 0 1 $T0 $ebp = $eip $T0 4 + ^ = $ebp $T0 ^ = $esp $T0 8 + =  $20 $T0 4 - ^ =  $24 $T0 8 - ^ =  $23 $T0 12 - ^ = 
STACK WIN 4 119b 3c 3 0 c 0 0 0 1 $T0 $ebp = $eip $T0 4 + ^ = $ebp $T0 ^ = $esp $T0 8 + = 
STACK WIN 4 11d7 88 11 0 18 0 10 0 1 $T0 $ebp = $eip $T0 4 + ^ = $ebp $T0 ^ = $esp $T0 8 + = 
STACK WIN 4 11e8 73 0 0 18 4 10 0 1 $T0 $ebp = $eip $T0 4 + ^ = $ebp $T0 ^ = $esp $T0 8 + =  $23 $T0 20 - ^ = 
STACK WIN 4 1260 a 3 0 0 0 0 0 1 $T0 $ebp = $eip $T0 4 + ^ = $ebp $T0 ^ = $esp $T0 8 + = 
STACK WIN 4 1270 a 3 0 0 0 0 0 1 $T0 $ebp = $eip $T0 4 + ^ = $ebp $T0 ^ = $esp $T0 8 + = 
STACK WIN 4 1280 54 6 0 8 0 14 0 1 $T0 $ebp = $eip $T0 4 + ^ = $ebp $T0 ^ = $esp $T0 8 + = 
STACK WIN 4 12e0 21 7 0 0 0 4 0 1 $T0 $ebp = $eip $T0 4 + ^ = $ebp $T0 ^ = $esp $T0 8 + = 
STACK WIN 4 1310 14 7 0 0 0 4 0 1 $T0 $ebp = $eip $T0 4 + ^ = $ebp $T0 ^ = $esp $T0 8 + = 
STACK WIN 4 1330 2e 7 0 4 0 4 0 1 $T0 $ebp = $eip $T0 4 + ^ = $ebp $T0 ^ = $esp $T0 8 + = 
STACK WIN 4 1360 1e 7 0 0 0 4 0 1 $T0 $ebp = $eip $T0 4 + ^ = $ebp $T0 ^ = $esp $T0 8 + = 
STACK WIN 4 1380 10 7 0 0 0 4 0 1 $T0 $ebp = $eip $T0 4 + ^ = $ebp $T0 ^ = $esp $T0 8 + = 
STACK WIN 4 1390 7 3 0 4 0 0 0 1 $T0 $ebp = $eip $T0 4 + ^ = $ebp $T0 ^ = $esp $T0 8 + = 
STACK WIN 4 13a0 16 7 0 4 0 4 0 1 $T0 $ebp = $eip $T0 4 + ^ = $ebp $T0 ^ = $esp $T0 8 + = 
STACK WIN 4 13b6 e 3 0 8 0 0 0 1 $T0 $ebp = $eip $T0 4 + ^ = $ebp $T0 ^ = $esp $T0 8 + = 
STACK WIN 4 13c4 23 a 0 4 0 0 0 1 $T0 $ebp = $eip $T0 4 + ^ = $ebp $T0 ^ = $esp $T0 8 + = 
STACK WIN 4 13cc 17 2 0 4 4 0 0 1 $T0 $ebp = $eip $T0 4 + ^ = $ebp $T0 ^ = $esp $T0 8 + =  $23 $T0 4 - ^ = 
STACK WIN 4 13e7 9b 1 0 0 0 0 0 1 $T0 .raSearch = $eip $T0 ^ = $esp $T0 4 + = 
STACK WIN 4 13e8 2b 0 0 0 4 0 0 1 $T0 .raSearch = $eip $T0 ^ = $esp $T0 4 + =  $23 $T0 4 - ^ = 
STACK WIN 4 1482 8 0 0 0 0 0 0 1 $T0 .raSearch = $eip $T0 ^ = $esp $T0 4 + = 
STACK WIN 4 148a 12 0 0 0 0 0 0 1 $T0 .raSearch = $eip $T0 ^ = $esp $T0 4 + = 
STACK WIN 4 149c 17c c 0 0 10 24 0 1 $T0 $ebp = $eip $T0 4 + ^ = $ebp $T0 ^ = $esp $T0 8 + =  $20 $T0 40 - ^ =  $23 $T0 44 - ^ =  $24 $T0 48 - ^ = 
STACK WIN 4 15d5 14 0 0 0 10 24 0 1 $T0 $ebp = $T2 $esp = $T1 .raSearchStart = $eip $T1 ^ = $ebp $T0 = $esp $T1 4 + = 
STACK WIN 4 1618 a 0 0 0 0 0 0 1 $T0 .raSearch = $eip $T0 ^ = $esp $T0 4 + = 
STACK WIN 4 1622 5 0 0 4 0 0 0 1 $T0 $ebp = $eip $T0 4 + ^ = $ebp $T0 ^ = $esp $T0 8 + = 
STACK WIN 4 1627 1d 3 0 4 0 0 0 1 $T0 $ebp = $eip $T0 4 + ^ = $ebp $T0 ^ = $esp $T0 8 + = 
STACK WIN 4 1644 44 7 0 8 0 0 0 1 $T0 $ebp = $eip $T0 4 + ^ = $ebp $T0 ^ = $esp $T0 8 + = 
STACK WIN 4 164b 37 0 0 8 4 0 0 1 $T0 $ebp = $eip $T0 4 + ^ = $ebp $T0 ^ = $esp $T0 8 + =  $23 $T0 4 - ^ = 
STACK WIN 4 1688 35 0 0 0 0 0 0 1 $T0 .raSearch = $eip $T0 ^ = $esp $T0 4 + = 
STACK WIN 4 169b 21 0 0 0 4 0 0 1 $T0 .raSearch = $eip $T0 ^ = $esp $T0 4 + =  $23 $T0 4 - ^ = 
STACK WIN 4 16bd 39 3 0 4 0 0 0 1 $T0 $ebp = $eip $T0 4 + ^ = $ebp $T0 ^ = $esp $T0 8 + = 
STACK WIN 4 16f6 97 7 0 4 0 c 0 1 $T0 $ebp = $eip $T0 4 + ^ = $ebp $T0 ^ = $esp $T0 8 + = 
STACK WIN 4 16fd 84 0 0 4 4 c 0 1 $T0 $ebp = $eip $T0 4 + ^ = $ebp $T0 ^ = $esp $T0 8 + =  $23 $T0 16 - ^ = 
STACK WIN 4 1745 3b 0 0 4 8 c 0 1 $T0 $ebp = $eip $T0 4 + ^ = $ebp $T0 ^ = $esp $T0 8 + =  $23 $T0 16 - ^ =  $24 $T0 20 - ^ = 
STACK WIN 4 178d 8d c 0 4 10 18 0 1 $T0 $ebp = $eip $T0 4 + ^ = $ebp $T0 ^ = $esp $T0 8 + =  $20 $T0 28 - ^ =  $23 $T0 32 - ^ =  $24 $T0 36 - ^ = 
STACK WIN 4 17f5 13 0 0 4 10 18 0 1 $T0 $ebp = $T2 $esp = $T1 .raSearchStart = $eip $T1 ^ = $ebp $T0 = $esp $T1 4 + = 
STACK WIN 4 181a 1d 3 0 4 0 0 0 1 $T0 $ebp = $eip $T0 4 + ^ = $ebp $T0 ^ = $esp $T0 8 + = 
STACK WIN 4 1837 28 3 0 8 0 0 0 1 $T0 $ebp = $eip $T0 4 + ^ = $ebp $T0 ^ = $esp $T0 8 + = 
STACK WIN 4 185f 3b 3 0 4 0 0 0 1 $T0 $ebp = $eip $T0 4 + ^ = $ebp $T0 ^ = $esp $T0 8 + = 
STACK WIN 4 189a 15 3 0 4 0 0 0 1 $T0 $ebp = $eip $T0 4 + ^ = $ebp $T0 ^ = $esp $T0 8 + = 
STACK WIN 4 18af 9c 15 0 0 0 14 0 1 $T0 $ebp = $eip $T0 4 + ^ = $ebp $T0 ^ = $esp $T0 8 + = 
STACK WIN 4 18c3 84 1 0 0 4 14 0 1 $T0 $ebp = $eip $T0 4 + ^ = $ebp $T0 ^ = $esp $T0 8 + =  $23 $T0 24 - ^ = 
STACK WIN 4 18c4 82 0 0 0 8 14 0 1 $T0 $ebp = $eip $T0 4 + ^ = $ebp $T0 ^ = $esp $T0 8 + =  $23 $T0 24 - ^ =  $24 $T0 28 - ^ = 
STACK WIN 4 194b 3 0 0 4 0 0 0 1 $T0 .raSearch = $eip $T0 ^ = $esp $T0 4 + = 
STACK WIN 4 194e 4 0 0 0 0 0 0 1 $T0 .raSearch = $eip $T0 ^ = $esp $T0 4 + = 
STACK WIN 4 1952 3 0 0 0 0 0 0 1 $T0 .raSearch = $eip $T0 ^ = $esp $T0 4 + = 
STACK WIN 4 1955 6 0 0 0 0 0 0 1 $T0 .raSearch = $eip $T0 ^ = $esp $T0 4 + = 
STACK WIN 4 195b 3 0 0 0 0 0 0 1 $T0 .raSearch = $eip $T0 ^ = $esp $T0 4 + = 
STACK WIN 4 195e 3 0 0 0 0 0 0 1 $T0 .raSearch = $eip $T0 ^ = $esp $T0 4 + = 
STACK WIN 4 1961 c 0 0 0 0 0 0 1 $T0 .raSearch = $eip $T0 ^ = $esp $T0 4 + = 
STACK WIN 4 196d 21 0 0 0 0 0 0 1 $T0 .raSearch = $eip $T0 ^ = $esp $T0 4 + = 
STACK WIN 4 198e 1 0 0 0 0 0 0 1 $T0 .raSearch = $eip $T0 ^ = $esp $T0 4 + = 
STACK WIN 4 198f 1 0 0 0 0 0 0 1 $T0 .raSearch = $eip $T0 ^ = $esp $T0 4 + = 
STACK WIN 4 1990 6 0 0 0 0 0 0 1 $T0 .raSearch = $eip $T0 ^ = $esp $T0 4 + = 
STACK WIN 4 1996 6 0 0 0 0 0 0 1 $T0 .raSearch = $eip $T0 ^ = $esp $T0 4 + = 
STACK WIN 4 199c 1d 0 0 0 0 0 0 1 $T0 .raSearch = $eip $T0 ^ = $esp $T0 4 + = 
STACK WIN 4 19b9 c 0 0 0 0 0 0 1 $T0 .raSearch = $eip $T0 ^ = $esp $T0 4 + = 
STACK WIN 4 19c5 6 0 0 0 0 0 0 1 $T0 .raSearch = $eip $T0 ^ = $esp $T0 4 + = 
STACK WIN 4 19cb 6 0 0 0 0 0 0 1 $T0 .raSearch = $eip $T0 ^ = $esp $T0 4 + = 
STACK WIN 4 19d1 11b b 0 4 8 324 0 1 $T0 $ebp = $eip $T0 4 + ^ = $ebp $T0 ^ = $esp $T0 8 + =  $20 $T0 808 - ^ =  $23 $T0 812 - ^ = 
STACK WIN 4 1aec 3 0 0 0 0 0 0 1 $T0 .raSearch = $eip $T0 ^ = $esp $T0 4 + = 
STACK WIN 4 1aef 44 0 0 0 0 0 0 1 $T0 .raSearch = $eip $T0 ^ = $esp $T0 4 + = 
STACK WIN 4 1b33 c 0 0 0 0 0 0 1 $T0 .raSearch = $eip $T0 ^ = $esp $T0 4 + = 
STACK WIN 4 1b3f 41 3 0 4 0 0 0 1 $T0 $ebp = $eip $T0 4 + ^ = $ebp $T0 ^ = $esp $T0 8 + = 
STACK WIN 4 1b80 8 0 0 4 0 0 0 1 $T0 .raSearch = $eip $T0 ^ = $esp $T0 4 + = 
STACK WIN 4 1b88 2b 2 0 0 0 0 0 1 $T0 .raSearch = $eip $T0 ^ = $esp $T0 4 + = 
STACK WIN 4 1b89 29 1 0 0 4 0 0 1 $T0 .raSearch = $eip $T0 ^ = $esp $T0 4 + =  $20 $T0 4 - ^ = 
STACK WIN 4 1b8a 27 0 0 0 8 0 0 1 $T0 .raSearch = $eip $T0 ^ = $esp $T0 4 + =  $20 $T0 4 - ^ =  $23 $T0 8 - ^ = 
STACK WIN 4 1b99 17 0 0 0 c 0 0 1 $T0 .raSearch = $eip $T0 ^ = $esp $T0 4 + =  $20 $T0 4 - ^ =  $23 $T0 8 - ^ =  $24 $T0 12 - ^ = 
STACK WIN 4 1bb3 2b 2 0 0 0 0 0 1 $T0 .raSearch = $eip $T0 ^ = $esp $T0 4 + = 
STACK WIN 4 1bb4 29 1 0 0 4 0 0 1 $T0 .raSearch = $eip $T0 ^ = $esp $T0 4 + =  $20 $T0 4 - ^ = 
STACK WIN 4 1bb5 27 0 0 0 8 0 0 1 $T0 .raSearch = $eip $T0 ^ = $esp $T0 4 + =  $20 $T0 4 - ^ =  $23 $T0 8 - ^ = 
STACK WIN 4 1bc4 17 0 0 0 c 0 0 1 $T0 .raSearch = $eip $T0 ^ = $esp $T0 4 + =  $20 $T0 4 - ^ =  $23 $T0 8 - ^ =  $24 $T0 12 - ^ = 
STACK WIN 4 1bde 6 0 0 0 0 0 0 1 $T0 .raSearch = $eip $T0 ^ = $esp $T0 4 + = 
STACK WIN 4 1c4b 1a1 e 0 0 0 2c 0 1 $T0 $ebp = $eip $T0 4 + ^ = $ebp $T0 ^ = $esp $T0 8 + = 
STACK WIN 4 1c59 18f 0 0 0 4 2c 0 1 $T0 $ebp = $eip $T0 4 + ^ = $ebp $T0 ^ = $esp $T0 8 + =  $20 $T0 48 - ^ = 
STACK WIN 4 1c81 f0 0 0 0 8 2c 0 1 $T0 $ebp = $eip $T0 4 + ^ = $ebp $T0 ^ = $esp $T0 8 + =  $20 $T0 48 - ^ =  $23 $T0 52 - ^ = 
STACK WIN 4 1c82 ee 0 0 0 c 2c 0 1 $T0 $ebp = $eip $T0 4 + ^ = $ebp $T0 ^ = $esp $T0 8 + =  $20 $T0 48 - ^ =  $23 $T0 52 - ^ =  $24 $T0 56 - ^ = 
STACK WIN 4 1dec c 0 0 0 0 0 0 1 $T0 .raSearch = $eip $T0 ^ = $esp $T0 4 + = 
STACK WIN 4 1df8 1 0 0 0 0 0 0 1 $T0 .raSearch = $eip $T0 ^ = $esp $T0 4 + = 
STACK WIN 4 1df9 11 0 0 0 0 0 0 1 $T0 .raSearch = $eip $T0 ^ = $esp $T0 4 + = 
STACK WIN 4 1e0a 28 3 0 4 0 0 0 1 $T0 $ebp = $eip $T0 4 + ^ = $ebp $T0 ^ = $esp $T0 8 + = 
STACK WIN 4 1e32 fb 9 0 0 0 324 0 1 $T0 $ebp = $eip $T0 4 + ^ = $ebp $T0 ^ = $esp $T0 8 + = 
STACK WIN 4 1f34 1 0 0 0 0 0 0 1 $T0 .raSearch = $eip $T0 ^ = $esp $T0 4 + = 
STACK WIN 4 1f35 3a 8 0 c 0 0 0 1 $T0 $ebp = $eip $T0 4 + ^ = $ebp $T0 ^ = $esp $T0 8 + = 
STACK WIN 4 1f39 34 4 0 c 4 0 0 1 $T0 $ebp = $eip $T0 4 + ^ = $ebp $T0 ^ = $esp $T0 8 + =  $23 $T0 4 - ^ = 
STACK WIN 4 1f3d 2f 0 0 c 8 0 0 1 $T0 $ebp = $eip $T0 4 + ^ = $ebp $T0 ^ = $esp $T0 8 + =  $23 $T0 4 - ^ =  $24 $T0 8 - ^ = 
STACK WIN 4 1f6f 9c 13 0 4 0 24c 0 1 $T0 $ebp = $eip $T0 4 + ^ = $ebp $T0 ^ = $esp $T0 8 + = 
STACK WIN 4 1fa4 59 0 0 4 4 24c 0 1 $T0 $ebp = $eip $T0 4 + ^ = $ebp $T0 ^ = $esp $T0 8 + =  $24 $T0 604 - ^ = 
STACK WIN 4 200b 9c 13 0 4 0 24c 0 1 $T0 $ebp = $eip $T0 4 + ^ = $ebp $T0 ^ = $esp $T0 8 + = 
STACK WIN 4 2040 59 0 0 4 4 24c 0 1 $T0 $ebp = $eip $T0 4 + ^ = $ebp $T0 ^ = $esp $T0 8 + =  $24 $T0 604 - ^ = 
STACK WIN 4 20a7 13 0 0 0 0 0 0 1 $T0 .raSearch = $eip $T0 ^ = $esp $T0 4 + = 
STACK WIN 4 20ba c 0 0 0 0 0 0 1 $T0 .raSearch = $eip $T0 ^ = $esp $T0 4 + = 
STACK WIN 4 20d0 32 8 0 8 0 0 0 1 $T0 $ebp = $eip $T0 4 + ^ = $ebp $T0 ^ = $esp $T0 8 + = 
STACK WIN 4 20d4 28 4 0 8 4 0 0 1 $T0 $ebp = $eip $T0 4 + ^ = $ebp $T0 ^ = $esp $T0 8 + =  $23 $T0 4 - ^ = 
STACK WIN 4 20d8 23 0 0 8 8 0 0 1 $T0 $ebp = $eip $T0 4 + ^ = $ebp $T0 ^ = $esp $T0 8 + =  $23 $T0 4 - ^ =  $24 $T0 8 - ^ = 
STACK WIN 4 2110 15a c 0 10 0 1c 0 1 $T0 $ebp = $eip $T0 4 + ^ = $ebp $T0 ^ = $esp $T0 8 + = 
STACK WIN 4 2117 120 5 0 10 4 1c 0 1 $T0 $ebp = $eip $T0 4 + ^ = $ebp $T0 ^ = $esp $T0 8 + =  $20 $T0 32 - ^ = 
STACK WIN 4 211b 11b 1 0 10 8 1c 0 1 $T0 $ebp = $eip $T0 4 + ^ = $ebp $T0 ^ = $esp $T0 8 + =  $20 $T0 32 - ^ =  $23 $T0 36 - ^ = 
STACK WIN 4 211c 119 0 0 10 c 1c 0 1 $T0 $ebp = $eip $T0 4 + ^ = $ebp $T0 ^ = $esp $T0 8 + =  $20 $T0 32 - ^ =  $23 $T0 36 - ^ =  $24 $T0 40 - ^ = 
STACK WIN 4 226a 2e 0 0 0 0 0 0 1 $T0 .raSearch = $eip $T0 ^ = $esp $T0 4 + = 
STACK WIN 4 2298 24 3 0 4 0 0 0 1 $T0 $ebp = $eip $T0 4 + ^ = $ebp $T0 ^ = $esp $T0 8 + = 
STACK WIN 4 241a 1d 3 0 4 0 0 0 1 $T0 $ebp = $eip $T0 4 + ^ = $ebp $T0 ^ = $esp $T0 8 + = 
STACK WIN 4 2437 a0 b 0 10 0 0 0 1 $T0 $ebp = $eip $T0 4 + ^ = $ebp $T0 ^ = $esp $T0 8 + = 
STACK WIN 4 2440 95 2 0 10 4 0 0 1 $T0 $ebp = $eip $T0 4 + ^ = $ebp $T0 ^ = $esp $T0 8 + =  $20 $T0 4 - ^ = 
STACK WIN 4 2441 93 1 0 10 8 0 0 1 $T0 $ebp = $eip $T0 4 + ^ = $ebp $T0 ^ = $esp $T0 8 + =  $20 $T0 4 - ^ =  $23 $T0 8 - ^ = 
STACK WIN 4 2442 91 0 0 10 c 0 0 1 $T0 $ebp = $eip $T0 4 + ^ = $ebp $T0 ^ = $esp $T0 8 + =  $20 $T0 4 - ^ =  $23 $T0 8 - ^ =  $24 $T0 12 - ^ = 
STACK WIN 4 24d7 81 a 0 4 0 0 0 1 $T0 $ebp = $eip $T0 4 + ^ = $ebp $T0 ^ = $esp $T0 8 + = 
STACK WIN 4 24db 7b 6 0 4 4 0 0 1 $T0 $ebp = $eip $T0 4 + ^ = $ebp $T0 ^ = $esp $T0 8 + =  $20 $T0 4 - ^ = 
STACK WIN 4 24e1 74 0 0 4 8 0 0 1 $T0 $ebp = $eip $T0 4 + ^ = $ebp $T0 ^ = $esp $T0 8 + =  $20 $T0 4 - ^ =  $24 $T0 8 - ^ = 
STACK WIN 4 2507 4d 0 0 4 c 0 0 1 $T0 $ebp = $eip $T0 4 + ^ = $ebp $T0 ^ = $esp $T0 8 + =  $20 $T0 4 - ^ =  $24 $T0 8 - ^ =  $23 $T0 12 - ^ = 
STACK WIN 4 2558 40 4 0 10 0 0 0 1 $T0 $ebp = $eip $T0 4 + ^ = $ebp $T0 ^ = $esp $T0 8 + = 
STACK WIN 4 255c 3a 0 0 10 4 0 0 1 $T0 $ebp = $eip $T0 4 + ^ = $ebp $T0 ^ = $esp $T0 8 + =  $23 $T0 4 - ^ = 
STACK WIN 4 2598 43 4 0 14 0 0 0 1 $T0 $ebp = $eip $T0 4 + ^ = $ebp $T0 ^ = $esp $T0 8 + = 
STACK WIN 4 259c 3d 0 0 14 4 0 0 1 $T0 $ebp = $eip $T0 4 + ^ = $ebp $T0 ^ = $esp $T0 8 + =  $23 $T0 4 - ^ = 
STACK WIN 4 25db 3a 4 0 8 0 0 0 1 $T0 $ebp = $eip $T0 4 + ^ = $ebp $T0 ^ = $esp $T0 8 + = 
STACK WIN 4 25df 34 0 0 8 4 0 0 1 $T0 $ebp = $eip $T0 4 + ^ = $ebp $T0 ^ = $esp $T0 8 + =  $23 $T0 4 - ^ = 
STACK WIN 4 2615 49 4 0 1c 0 0 0 1 $T0 $ebp = $eip $T0 4 + ^ = $ebp $T0 ^ = $esp $T0 8 + = 
STACK WIN 4 2619 43 0 0 1c 4 0 0 1 $T0 $ebp = $eip $T0 4 + ^ = $ebp $T0 ^ = $esp $T0 8 + =  $23 $T0 4 - ^ = 
STACK WIN 4 265e 3a 4 0 4 0 0 0 1 $T0 $ebp = $eip $T0 4 + ^ = $ebp $T0 ^ = $esp $T0 8 + = 
STACK WIN 4 2662 2f 0 0 4 4 0 0 1 $T0 $ebp = $eip $T0 4 + ^ = $ebp $T0 ^ = $esp $T0 8 + =  $23 $T0 4 - ^ = 
STACK WIN 4 2698 3a 4 0 4 0 0 0 1 $T0 $ebp = $eip $T0 4 + ^ = $ebp $T0 ^ = $esp $T0 8 + = 
STACK WIN 4 269c 34 0 0 4 4 0 0 1 $T0 $ebp = $eip $T0 4 + ^ = $ebp $T0 ^ = $esp $T0 8 + =  $23 $T0 4 - ^ = 
STACK WIN 4 26d2 3d 4 0 8 0 0 0 1 $T0 $ebp = $eip $T0 4 + ^ = $ebp $T0 ^ = $esp $T0 8 + = 
STACK WIN 4 26d6 37 0 0 8 4 0 0 1 $T0 $ebp = $eip $T0 4 + ^ = $ebp $T0 ^ = $esp $T0 8 + =  $23 $T0 4 - ^ = 
STACK WIN 4 270f 46 4 0 c 0 0 0 1 $T0 $ebp = $eip $T0 4 + ^ = $ebp $T0 ^ = $esp $T0 8 + = 
STACK WIN 4 2713 40 0 0 c 4 0 0 1 $T0 $ebp = $eip $T0 4 + ^ = $ebp $T0 ^ = $esp $T0 8 + =  $23 $T0 4 - ^ = 
STACK WIN 4 2755 24 6 0 0 0 0 0 1 $T0 .raSearch = $eip $T0 ^ = $esp $T0 4 + = 
STACK WIN 4 275b 1d 0 0 0 4 0 0 1 $T0 .raSearch = $eip $T0 ^ = $esp $T0 4 + =  $24 $T0 4 - ^ = 
STACK WIN 4 2779 32 3 0 4 0 0 0 1 $T0 $ebp = $eip $T0 4 + ^ = $ebp $T0 ^ = $esp $T0 8 + = 
STACK WIN 4 2783 26 0 0 4 4 0 0 1 $T0 $ebp = $eip $T0 4 + ^ = $ebp $T0 ^ = $esp $T0 8 + =  $23 $T0 4 - ^ = 
STACK WIN 4 290e 1 0 0 4 0 0 0 1 $T0 .raSearch = $eip $T0 ^ = $esp $T0 4 + = 
STACK WIN 4 290f 1 0 0 4 0 0 0 1 $T0 .raSearch = $eip $T0 ^ = $esp $T0 4 + = 
STACK WIN 4 2910 1c 3 0 4 0 0 0 1 $T0 $ebp = $eip $T0 4 + ^ = $ebp $T0 ^ = $esp $T0 8 + = 
STACK WIN 4 292c 33 0 0 0 0 0 0 1 $T0 .raSearch = $eip $T0 ^ = $esp $T0 4 + = 
STACK WIN 4 295f 1b 0 0 0 0 0 0 1 $T0 .raSearch = $eip $T0 ^ = $esp $T0 4 + = 
STACK WIN 4 297a 3c 2 0 0 0 0 0 1 $T0 .raSearch = $eip $T0 ^ = $esp $T0 4 + = 
STACK WIN 4 297b 3a 1 0 0 4 0 0 1 $T0 .raSearch = $eip $T0 ^ = $esp $T0 4 + =  $23 $T0 4 - ^ = 
STACK WIN 4 297c 38 0 0 0 8 0 0 1 $T0 .raSearch = $eip $T0 ^ = $esp $T0 4 + =  $23 $T0 4 - ^ =  $24 $T0 8 - ^ = 
STACK WIN 4 29b6 2f 1 0 0 0 0 0 1 $T0 .raSearch = $eip $T0 ^ = $esp $T0 4 + = 
STACK WIN 4 29b7 2d 0 0 0 4 0 0 1 $T0 .raSearch = $eip $T0 ^ = $esp $T0 4 + =  $23 $T0 4 - ^ = 
STACK WIN 4 29c5 1c 0 0 0 8 0 0 1 $T0 .raSearch = $eip $T0 ^ = $esp $T0 4 + =  $23 $T0 4 - ^ =  $24 $T0 8 - ^ = 
STACK WIN 4 29e5 1d 0 0 0 0 0 0 1 $T0 .raSearch = $eip $T0 ^ = $esp $T0 4 + = 
STACK WIN 4 2b47 173 12 0 8 0 8 0 1 $T0 $ebp = $eip $T0 4 + ^ = $ebp $T0 ^ = $esp $T0 8 + = 
STACK WIN 4 2b59 158 0 0 8 4 8 0 1 $T0 $ebp = $eip $T0 4 + ^ = $ebp $T0 ^ = $esp $T0 8 + =  $23 $T0 12 - ^ = 
STACK WIN 4 2b6d 13e 0 0 8 8 8 0 1 $T0 $ebp = $eip $T0 4 + ^ = $ebp $T0 ^ = $esp $T0 8 + =  $23 $T0 12 - ^ =  $20 $T0 16 - ^ = 
STACK WIN 4 2b70 13a 0 0 8 c 8 0 1 $T0 $ebp = $eip $T0 4 + ^ = $ebp $T0 ^ = $esp $T0 8 + =  $23 $T0 12 - ^ =  $20 $T0 16 - ^ =  $24 $T0 20 - ^ = 
STACK WIN 4 2cba 6 0 0 0 0 0 0 1 $T0 .raSearch = $eip $T0 ^ = $esp $T0 4 + = 
STACK WIN 4 2cc0 f 5 0 4 0 0 0 1 $T0 $ebp = $eip $T0 4 + ^ = $ebp $T0 ^ = $esp $T0 8 + = 
STACK WIN 4 2ccf 1f 5 0 4 0 0 0 1 $T0 $ebp = $eip $T0 4 + ^ = $ebp $T0 ^ = $esp $T0 8 + = 
STACK WIN 4 2cee 31 10 0 4 0 0 0 1 $T0 $ebp = $eip $T0 4 + ^ = $ebp $T0 ^ = $esp $T0 8 + = 
STACK WIN 4 2cfe 1d 0 0 4 4 0 0 1 $T0 $ebp = $eip $T0 4 + ^ = $ebp $T0 ^ = $esp $T0 8 + =  $23 $T0 4 - ^ = 
STACK WIN 4 2d1f 19 0 0 0 0 0 0 1 $T0 .raSearch = $eip $T0 ^ = $esp $T0 4 + = 
STACK WIN 4 2d38 14 5 0 4 0 0 0 1 $T0 $ebp = $eip $T0 4 + ^ = $ebp $T0 ^ = $esp $T0 8 + = 
STACK WIN 4 2d4c 49 11 0 4 0 4 0 1 $T0 $ebp = $eip $T0 4 + ^ = $ebp $T0 ^ = $esp $T0 8 + = 
STACK WIN 4 2d5d 2f 0 0 4 4 4 0 1 $T0 $ebp = $eip $T0 4 + ^ = $ebp $T0 ^ = $esp $T0 8 + =  $23 $T0 8 - ^ = 
STACK WIN 4 2d95 15 5 0 4 0 0 0 1 $T0 $ebp = $eip $T0 4 + ^ = $ebp $T0 ^ = $esp $T0 8 + = 
STACK WIN 4 2daa 124 d 0 4 0 c 0 1 $T0 $ebp = $eip $T0 4 + ^ = $ebp $T0 ^ = $esp $T0 8 + = 
STACK WIN 4 2db7 113 0 0 4 4 c 0 1 $T0 $ebp = $eip $T0 4 + ^ = $ebp $T0 ^ = $esp $T0 8 + =  $23 $T0 16 - ^ = 
STACK WIN 4 2dd6 f3 0 0 4 8 c 0 1 $T0 $ebp = $eip $T0 4 + ^ = $ebp $T0 ^ = $esp $T0 8 + =  $23 $T0 16 - ^ =  $20 $T0 20 - ^ = 
STACK WIN 4 2dd7 ef 0 0 4 c c 0 1 $T0 $ebp = $eip $T0 4 + ^ = $ebp $T0 ^ = $esp $T0 8 + =  $23 $T0 16 - ^ =  $20 $T0 20 - ^ =  $24 $T0 24 - ^ = 
STACK WIN 4 2ece 175 12 0 14 0 4 0 1 $T0 $ebp = $eip $T0 4 + ^ = $ebp $T0 ^ = $esp $T0 8 + = 
STACK WIN 4 2ed8 15b 8 0 14 4 4 0 1 $T0 $ebp = $eip $T0 4 + ^ = $ebp $T0 ^ = $esp $T0 8 + =  $20 $T0 8 - ^ = 
STACK WIN 4 2edc 156 4 0 14 8 4 0 1 $T0 $ebp = $eip $T0 4 + ^ = $ebp $T0 ^ = $esp $T0 8 + =  $20 $T0 8 - ^ =  $23 $T0 12 - ^ = 
STACK WIN 4 2ee0 151 0 0 14 c 4 0 1 $T0 $ebp = $eip $T0 4 + ^ = $ebp $T0 ^ = $esp $T0 8 + =  $20 $T0 8 - ^ =  $23 $T0 12 - ^ =  $24 $T0 16 - ^ = 
STACK WIN 4 3043 55 6 0 c 0 0 0 1 $T0 $ebp = $eip $T0 4 + ^ = $ebp $T0 ^ = $esp $T0 8 + = 
STACK WIN 4 3049 4d 0 0 c 4 0 0 1 $T0 $ebp = $eip $T0 4 + ^ = $ebp $T0 ^ = $esp $T0 8 + =  $23 $T0 4 - ^ = 
STACK WIN 4 3059 3c 0 0 c 8 0 0 1 $T0 $ebp = $eip $T0 4 + ^ = $ebp $T0 ^ = $esp $T0 8 + =  $23 $T0 4 - ^ =  $24 $T0 8 - ^ = 
STACK WIN 4 3098 b 5 0 4 0 0 0 1 $T0 $ebp = $eip $T0 4 + ^ = $ebp $T0 ^ = $esp $T0 8 + = 
STACK WIN 4 30a3 2f 0 0 0 0 0 0 1 $T0 .raSearch = $eip $T0 ^ = $esp $T0 4 + = 
STACK WIN 4 30d2 59 0 0 0 0 0 0 1 $T0 .raSearch = $eip $T0 ^ = $esp $T0 4 + = 
STACK WIN 4 30df 4b 0 0 0 4 0 0 1 $T0 .raSearch = $eip $T0 ^ = $esp $T0 4 + =  $23 $T0 4 - ^ = 
STACK WIN 4 30e0 49 0 0 0 8 0 0 1 $T0 .raSearch = $eip $T0 ^ = $esp $T0 4 + =  $23 $T0 4 - ^ =  $24 $T0 8 - ^ = 
STACK WIN 4 312b d1 a 0 4 0 8 0 1 $T0 $ebp = $eip $T0 4 + ^ = $ebp $T0 ^ = $esp $T0 8 + = 
STACK WIN 4 3133 b8 2 0 4 4 8 0 1 $T0 $ebp = $eip $T0 4 + ^ = $ebp $T0 ^ = $esp $T0 8 + =  $20 $T0 12 - ^ = 
STACK WIN 4 3134 b4 1 0 4 8 8 0 1 $T0 $ebp = $eip $T0 4 + ^ = $ebp $T0 ^ = $esp $T0 8 + =  $20 $T0 12 - ^ =  $23 $T0 16 - ^ = 
STACK WIN 4 3135 b2 0 0 4 c 8 0 1 $T0 $ebp = $eip $T0 4 + ^ = $ebp $T0 ^ = $esp $T0 8 + =  $20 $T0 12 - ^ =  $23 $T0 16 - ^ =  $24 $T0 20 - ^ = 
STACK WIN 4 31fc 2f 6 0 4 0 0 0 1 $T0 $ebp = $eip $T0 4 + ^ = $ebp $T0 ^ = $esp $T0 8 + = 
STACK WIN 4 3202 27 0 0 4 4 0 0 1 $T0 $ebp = $eip $T0 4 + ^ = $ebp $T0 ^ = $esp $T0 8 + =  $23 $T0 4 - ^ = 
STACK WIN 4 320c 1c 0 0 4 8 0 0 1 $T0 $ebp = $eip $T0 4 + ^ = $ebp $T0 ^ = $esp $T0 8 + =  $23 $T0 4 - ^ =  $24 $T0 8 - ^ = 
STACK WIN 4 322b 2f 6 0 4 0 0 0 1 $T0 $ebp = $eip $T0 4 + ^ = $ebp $T0 ^ = $esp $T0 8 + = 
STACK WIN 4 3231 27 0 0 4 4 0 0 1 $T0 $ebp = $eip $T0 4 + ^ = $ebp $T0 ^ = $esp $T0 8 + =  $23 $T0 4 - ^ = 
STACK WIN 4 323b 1c 0 0 4 8 0 0 1 $T0 $ebp = $eip $T0 4 + ^ = $ebp $T0 ^ = $esp $T0 8 + =  $23 $T0 4 - ^ =  $24 $T0 8 - ^ = 
STACK WIN 4 325a 7f 3 0 0 0 0 0 1 $T0 .raSearch = $eip $T0 ^ = $esp $T0 4 + = 
STACK WIN 4 325d 6f 0 0 0 4 0 0 1 $T0 .raSearch = $eip $T0 ^ = $esp $T0 4 + =  $24 $T0 4 - ^ = 
STACK WIN 4 326d 5e 0 0 0 8 0 0 1 $T0 .raSearch = $eip $T0 ^ = $esp $T0 4 + =  $24 $T0 4 - ^ =  $20 $T0 8 - ^ = 
STACK WIN 4 326e 5c 0 0 0 c 0 0 1 $T0 .raSearch = $eip $T0 ^ = $esp $T0 4 + =  $24 $T0 4 - ^ =  $20 $T0 8 - ^ =  $23 $T0 12 - ^ = 
STACK WIN 4 32d9 40 13 0 4 0 4 0 1 $T0 $ebp = $eip $T0 4 + ^ = $ebp $T0 ^ = $esp $T0 8 + = 
STACK WIN 4 32ea 24 2 0 4 4 4 0 1 $T0 $ebp = $eip $T0 4 + ^ = $ebp $T0 ^ = $esp $T0 8 + =  $23 $T0 8 - ^ = 
STACK WIN 4 32ed 1e 0 0 4 8 4 0 1 $T0 $ebp = $eip $T0 4 + ^ = $ebp $T0 ^ = $esp $T0 8 + =  $23 $T0 8 - ^ =  $24 $T0 12 - ^ = 
STACK WIN 4 3319 40 13 0 4 0 4 0 1 $T0 $ebp = $eip $T0 4 + ^ = $ebp $T0 ^ = $esp $T0 8 + = 
STACK WIN 4 332a 24 2 0 4 4 4 0 1 $T0 $ebp = $eip $T0 4 + ^ = $ebp $T0 ^ = $esp $T0 8 + =  $23 $T0 8 - ^ = 
STACK WIN 4 332d 1e 0 0 4 8 4 0 1 $T0 $ebp = $eip $T0 4 + ^ = $ebp $T0 ^ = $esp $T0 8 + =  $23 $T0 8 - ^ =  $24 $T0 12 - ^ = 
STACK WIN 4 3359 1b 5 0 4 0 0 0 1 $T0 $ebp = $eip $T0 4 + ^ = $ebp $T0 ^ = $esp $T0 8 + = 
STACK WIN 4 3374 1b 5 0 4 0 0 0 1 $T0 $ebp = $eip $T0 4 + ^ = $ebp $T0 ^ = $esp $T0 8 + = 
STACK WIN 4 338f 31 10 0 4 0 0 0 1 $T0 $ebp = $eip $T0 4 + ^ = $ebp $T0 ^ = $esp $T0 8 + = 
STACK WIN 4 339f 1d 0 0 4 4 0 0 1 $T0 $ebp = $eip $T0 4 + ^ = $ebp $T0 ^ = $esp $T0 8 + =  $23 $T0 4 - ^ = 
STACK WIN 4 33c0 5 0 0 0 0 0 0 1 $T0 .raSearch = $eip $T0 ^ = $esp $T0 4 + = 
STACK WIN 4 33c5 37 0 0 0 0 0 0 1 $T0 .raSearch = $eip $T0 ^ = $esp $T0 4 + = 
STACK WIN 4 33fc 14 0 0 0 0 0 0 1 $T0 .raSearch = $eip $T0 ^ = $esp $T0 4 + = 
STACK WIN 4 3410 5 0 0 0 0 0 0 1 $T0 .raSearch = $eip $T0 ^ = $esp $T0 4 + = 
STACK WIN 4 3415 5c 1f 0 8 0 8 0 1 $T0 $ebp = $eip $T0 4 + ^ = $ebp $T0 ^ = $esp $T0 8 + = 
STACK WIN 4 342a 3e a 0 8 4 8 0 1 $T0 $ebp = $eip $T0 4 + ^ = $ebp $T0 ^ = $esp $T0 8 + =  $20 $T0 12 - ^ = 
STACK WIN 4 342b 3a 9 0 8 8 8 0 1 $T0 $ebp = $eip $T0 4 + ^ = $ebp $T0 ^ = $esp $T0 8 + =  $20 $T0 12 - ^ =  $23 $T0 16 - ^ = 
STACK WIN 4 3434 30 0 0 8 c 8 0 1 $T0 $ebp = $eip $T0 4 + ^ = $ebp $T0 ^ = $esp $T0 8 + =  $20 $T0 12 - ^ =  $23 $T0 16 - ^ =  $24 $T0 20 - ^ = 
STACK WIN 4 3471 45 15 0 8 0 4 0 1 $T0 $ebp = $eip $T0 4 + ^ = $ebp $T0 ^ = $esp $T0 8 + = 
STACK WIN 4 3482 2b 4 0 8 4 4 0 1 $T0 $ebp = $eip $T0 4 + ^ = $ebp $T0 ^ = $esp $T0 8 + =  $23 $T0 8 - ^ = 
STACK WIN 4 3486 24 0 0 8 8 4 0 1 $T0 $ebp = $eip $T0 4 + ^ = $ebp $T0 ^ = $esp $T0 8 + =  $23 $T0 8 - ^ =  $24 $T0 12 - ^ = 
STACK WIN 4 34b6 1f 5 0 4 0 0 0 1 $T0 $ebp = $eip $T0 4 + ^ = $ebp $T0 ^ = $esp $T0 8 + = 
STACK WIN 4 34d5 13 5 0 4 0 0 0 1 $T0 $ebp = $eip $T0 4 + ^ = $ebp $T0 ^ = $esp $T0 8 + = 
STACK WIN 4 34e8 119 c 0 c 10 1c 0 1 $T0 $ebp = $eip $T0 4 + ^ = $ebp $T0 ^ = $esp $T0 8 + =  $20 $T0 32 - ^ =  $23 $T0 36 - ^ =  $24 $T0 40 - ^ = 
STACK WIN 4 35d7 10 0 0 c 10 1c 0 1 $T0 $ebp = $T2 $esp = $T1 .raSearchStart = $eip $T1 ^ = $ebp $T0 = $esp $T1 4 + = 
STACK WIN 4 35ef b 0 0 c 10 1c 0 1 $T0 $ebp = $T2 $esp = $T1 .raSearchStart = $eip $T1 ^ = $ebp $T0 = $esp $T1 4 + = 
STACK WIN 4 3601 41 5 0 4 0 0 0 1 $T0 $ebp = $eip $T0 4 + ^ = $ebp $T0 ^ = $esp $T0 8 + = 
STACK WIN 4 3642 44 0 0 0 0 0 0 1 $T0 .raSearch = $eip $T0 ^ = $esp $T0 4 + = 
STACK WIN 4 3686 6a 11 0 4 0 8 0 1 $T0 $ebp = $eip $T0 4 + ^ = $ebp $T0 ^ = $esp $T0 8 + = 
STACK WIN 4 36b1 22 0 0 4 4 8 0 1 $T0 $ebp = $eip $T0 4 + ^ = $ebp $T0 ^ = $esp $T0 8 + =  $23 $T0 12 - ^ = 
STACK WIN 4 36f0 f 5 0 4 0 0 0 1 $T0 $ebp = $eip $T0 4 + ^ = $ebp $T0 ^ = $esp $T0 8 + = 
STACK WIN 4 36ff f 0 0 0 0 0 0 1 $T0 .raSearch = $eip $T0 ^ = $esp $T0 4 + = 
STACK WIN 4 370e f 0 0 0 0 0 0 1 $T0 .raSearch = $eip $T0 ^ = $esp $T0 4 + = 
STACK WIN 4 371d 16 5 0 4 0 0 0 1 $T0 $ebp = $eip $T0 4 + ^ = $ebp $T0 ^ = $esp $T0 8 + = 
STACK WIN 4 3733 38 5 0 4 0 0 0 1 $T0 $ebp = $eip $T0 4 + ^ = $ebp $T0 ^ = $esp $T0 8 + = 
STACK WIN 4 376b 16 5 0 4 0 0 0 1 $T0 $ebp = $eip $T0 4 + ^ = $ebp $T0 ^ = $esp $T0 8 + = 
STACK WIN 4 3781 3d 5 0 4 0 0 0 1 $T0 $ebp = $eip $T0 4 + ^ = $ebp $T0 ^ = $esp $T0 8 + = 
STACK WIN 4 37be 19 0 0 0 0 0 0 1 $T0 .raSearch = $eip $T0 ^ = $esp $T0 4 + = 
STACK WIN 4 37d7 3 0 0 4 0 0 0 1 $T0 .raSearch = $eip $T0 ^ = $esp $T0 4 + = 
STACK WIN 4 37da 6 0 0 0 0 0 0 1 $T0 .raSearch = $eip $T0 ^ = $esp $T0 4 + = 
STACK WIN 4 37e0 6 0 0 0 0 0 0 1 $T0 .raSearch = $eip $T0 ^ = $esp $T0 4 + = 
STACK WIN 4 37e6 49 c 0 c 10 1c 0 1 $T0 $ebp = $eip $T0 4 + ^ = $ebp $T0 ^ = $esp $T0 8 + =  $20 $T0 32 - ^ =  $23 $T0 36 - ^ =  $24 $T0 40 - ^ = 
STACK WIN 4 3823 b 0 0 c 10 1c 0 1 $T0 $ebp = $T2 $esp = $T1 .raSearchStart = $eip $T1 ^ = $ebp $T0 = $esp $T1 4 + = 
STACK WIN 4 382f 28 8 0 8 0 c 0 1 $T0 $ebp = $eip $T0 4 + ^ = $ebp $T0 ^ = $esp $T0 8 + = 
STACK WIN 4 3857 2f 5 0 4 0 0 0 1 $T0 .raSearch = $eip $T0 ^ = $esp $T0 4 + = 
STACK WIN 4 385a 29 2 0 4 4 0 0 1 $T0 .raSearch = $eip $T0 ^ = $esp $T0 4 + =  $23 $T0 4 - ^ = 
STACK WIN 4 385d 25 0 0 4 8 0 0 1 $T0 .raSearch = $eip $T0 ^ = $esp $T0 4 + =  $23 $T0 4 - ^ =  $24 $T0 8 - ^ = 
STACK WIN 4 3865 1c 0 0 4 c 0 0 1 $T0 .raSearch = $eip $T0 ^ = $esp $T0 4 + =  $23 $T0 4 - ^ =  $24 $T0 8 - ^ =  $20 $T0 12 - ^ = 
STACK WIN 4 3886 b 0 0 0 0 0 0 1 $T0 .raSearch = $eip $T0 ^ = $esp $T0 4 + = 
STACK WIN 4 3891 17 6 0 0 0 4 0 1 $T0 $ebp = $eip $T0 4 + ^ = $ebp $T0 ^ = $esp $T0 8 + = 
STACK WIN 4 38a8 62 6 0 4 0 0 0 1 $T0 $ebp = $eip $T0 4 + ^ = $ebp $T0 ^ = $esp $T0 8 + = 
STACK WIN 4 38ae 5a 0 0 4 4 0 0 1 $T0 $ebp = $eip $T0 4 + ^ = $ebp $T0 ^ = $esp $T0 8 + =  $23 $T0 4 - ^ = 
STACK WIN 4 390a 6 0 0 0 0 0 0 1 $T0 .raSearch = $eip $T0 ^ = $esp $T0 4 + = 
STACK WIN 4 3910 2f 5 0 4 0 0 0 1 $T0 $ebp = $eip $T0 4 + ^ = $ebp $T0 ^ = $esp $T0 8 + = 
STACK WIN 4 393f 6 0 0 0 0 0 0 1 $T0 .raSearch = $eip $T0 ^ = $esp $T0 4 + = 
STACK WIN 4 3945 5 0 0 4 0 0 0 1 $T0 $ebp = $eip $T0 4 + ^ = $ebp $T0 ^ = $esp $T0 8 + = 
STACK WIN 4 394a 51 c 0 c 10 1c 0 1 $T0 $ebp = $eip $T0 4 + ^ = $ebp $T0 ^ = $esp $T0 8 + =  $20 $T0 32 - ^ =  $23 $T0 36 - ^ =  $24 $T0 40 - ^ = 
STACK WIN 4 398c e 0 0 c 10 1c 0 1 $T0 $ebp = $T2 $esp = $T1 .raSearchStart = $eip $T1 ^ = $ebp $T0 = $esp $T1 4 + = 
STACK WIN 4 399b 51 c 0 c 10 1c 0 1 $T0 $ebp = $eip $T0 4 + ^ = $ebp $T0 ^ = $esp $T0 8 + =  $20 $T0 32 - ^ =  $23 $T0 36 - ^ =  $24 $T0 40 - ^ = 
STACK WIN 4 39dd e 0 0 c 10 1c 0 1 $T0 $ebp = $T2 $esp = $T1 .raSearchStart = $eip $T1 ^ = $ebp $T0 = $esp $T1 4 + = 
STACK WIN 4 39ec 28 8 0 8 0 c 0 1 $T0 $ebp = $eip $T0 4 + ^ = $ebp $T0 ^ = $esp $T0 8 + = 
STACK WIN 4 3a14 28 8 0 8 0 c 0 1 $T0 $ebp = $eip $T0 4 + ^ = $ebp $T0 ^ = $esp $T0 8 + = 
STACK WIN 4 3a3c 1f 5 0 4 0 0 0 1 $T0 $ebp = $eip $T0 4 + ^ = $ebp $T0 ^ = $esp $T0 8 + = 
STACK WIN 4 3a5b 120 17 0 0 0 18 0 1 $T0 $ebp = $eip $T0 4 + ^ = $ebp $T0 ^ = $esp $T0 8 + = 
STACK WIN 4 3a73 ff 0 0 0 4 18 0 1 $T0 $ebp = $eip $T0 4 + ^ = $ebp $T0 ^ = $esp $T0 8 + =  $20 $T0 28 - ^ = 
STACK WIN 4 3a8a e2 0 0 0 8 18 0 1 $T0 $ebp = $eip $T0 4 + ^ = $ebp $T0 ^ = $esp $T0 8 + =  $20 $T0 28 - ^ =  $23 $T0 32 - ^ = 
STACK WIN 4 3a8b de 0 0 0 c 18 0 1 $T0 $ebp = $eip $T0 4 + ^ = $ebp $T0 ^ = $esp $T0 8 + =  $20 $T0 28 - ^ =  $23 $T0 32 - ^ =  $24 $T0 36 - ^ = 
STACK WIN 4 3b7b 141 d 0 0 0 c 0 1 $T0 $ebp = $eip $T0 4 + ^ = $ebp $T0 ^ = $esp $T0 8 + = 
STACK WIN 4 3b89 12f 0 0 0 4 c 0 1 $T0 $ebp = $eip $T0 4 + ^ = $ebp $T0 ^ = $esp $T0 8 + =  $23 $T0 16 - ^ = 
STACK WIN 4 3ba1 116 0 0 0 8 c 0 1 $T0 $ebp = $eip $T0 4 + ^ = $ebp $T0 ^ = $esp $T0 8 + =  $23 $T0 16 - ^ =  $20 $T0 20 - ^ = 
STACK WIN 4 3ba7 10f 0 0 0 c c 0 1 $T0 $ebp = $eip $T0 4 + ^ = $ebp $T0 ^ = $esp $T0 8 + =  $23 $T0 16 - ^ =  $20 $T0 20 - ^ =  $24 $T0 24 - ^ = 
STACK WIN 4 3cbc 16 5 0 4 0 0 0 1 $T0 $ebp = $eip $T0 4 + ^ = $ebp $T0 ^ = $esp $T0 8 + = 
STACK WIN 4 3cd2 1d 6 0 4 0 4 0 1 $T0 $ebp = $eip $T0 4 + ^ = $ebp $T0 ^ = $esp $T0 8 + = 
STACK WIN 4 3cef 3d 6 0 4 0 0 0 1 $T0 $ebp = $eip $T0 4 + ^ = $ebp $T0 ^ = $esp $T0 8 + = 
STACK WIN 4 3cf5 35 0 0 4 4 0 0 1 $T0 $ebp = $eip $T0 4 + ^ = $ebp $T0 ^ = $esp $T0 8 + =  $23 $T0 4 - ^ = 
STACK WIN 4 3d2c 24 7 0 8 0 8 0 1 $T0 $ebp = $eip $T0 4 + ^ = $ebp $T0 ^ = $esp $T0 8 + = 
STACK WIN 4 3d50 12 0 0 0 0 0 0 1 $T0 .raSearch = $eip $T0 ^ = $esp $T0 4 + = 
STACK WIN 4 3d62 1a 0 0 0 0 0 0 1 $T0 .raSearch = $eip $T0 ^ = $esp $T0 4 + = 
STACK WIN 4 3d7c 3 0 0 4 0 0 0 1 $T0 .raSearch = $eip $T0 ^ = $esp $T0 4 + = 
STACK WIN 4 3d7f 3 0 0 0 0 0 0 1 $T0 .raSearch = $eip $T0 ^ = $esp $T0 4 + = 
STACK WIN 4 3d82 8 0 0 4 0 0 0 1 $T0 .raSearch = $eip $T0 ^ = $esp $T0 4 + = 
STACK WIN 4 3d8a 3 0 0 0 0 0 0 1 $T0 .raSearch = $eip $T0 ^ = $esp $T0 4 + = 
STACK WIN 4 3d8d 3 0 0 4 0 0 0 1 $T0 .raSearch = $eip $T0 ^ = $esp $T0 4 + = 
STACK WIN 4 3d90 3d 6 0 0 0 0 0 1 $T0 .raSearch = $eip $T0 ^ = $esp $T0 4 + = 
STACK WIN 4 3d96 36 0 0 0 4 0 0 1 $T0 .raSearch = $eip $T0 ^ = $esp $T0 4 + =  $23 $T0 4 - ^ = 
STACK WIN 4 3dcd 9 0 0 4 0 0 0 1 $T0 .raSearch = $eip $T0 ^ = $esp $T0 4 + = 
STACK WIN 4 3dd6 65 7 0 4 0 4 0 1 $T0 $ebp = $eip $T0 4 + ^ = $ebp $T0 ^ = $esp $T0 8 + = 
STACK WIN 4 3ddd 5a 0 0 4 4 4 0 1 $T0 $ebp = $eip $T0 4 + ^ = $ebp $T0 ^ = $esp $T0 8 + =  $23 $T0 8 - ^ = 
STACK WIN 4 3e3b 3 0 0 4 0 0 0 1 $T0 .raSearch = $eip $T0 ^ = $esp $T0 4 + = 
STACK WIN 4 3e3e 4f 6 0 4 0 0 0 1 $T0 .raSearch = $eip $T0 ^ = $esp $T0 4 + = 
STACK WIN 4 3e41 49 3 0 4 4 0 0 1 $T0 .raSearch = $eip $T0 ^ = $esp $T0 4 + =  $20 $T0 4 - ^ = 
STACK WIN 4 3e42 47 2 0 4 8 0 0 1 $T0 .raSearch = $eip $T0 ^ = $esp $T0 4 + =  $20 $T0 4 - ^ =  $23 $T0 8 - ^ = 
STACK WIN 4 3e45 43 0 0 4 c 0 0 1 $T0 .raSearch = $eip $T0 ^ = $esp $T0 4 + =  $20 $T0 4 - ^ =  $23 $T0 8 - ^ =  $24 $T0 12 - ^ = 
STACK WIN 4 3e8d 31 10 0 4 0 0 0 1 $T0 $ebp = $eip $T0 4 + ^ = $ebp $T0 ^ = $esp $T0 8 + = 
STACK WIN 4 3e9d 1d 0 0 4 4 0 0 1 $T0 $ebp = $eip $T0 4 + ^ = $ebp $T0 ^ = $esp $T0 8 + =  $23 $T0 4 - ^ = 
STACK WIN 4 3ebe 12 0 0 0 0 0 0 1 $T0 .raSearch = $eip $T0 ^ = $esp $T0 4 + = 
STACK WIN 4 3ed0 12 0 0 4 0 0 0 1 $T0 .raSearch = $eip $T0 ^ = $esp $T0 4 + = 
STACK WIN 4 3ee2 5f 14 0 c 0 0 0 1 $T0 $ebp = $eip $T0 4 + ^ = $ebp $T0 ^ = $esp $T0 8 + = 
STACK WIN 4 3ef6 49 0 0 c 4 0 0 1 $T0 $ebp = $eip $T0 4 + ^ = $ebp $T0 ^ = $esp $T0 8 + =  $23 $T0 4 - ^ = 
STACK WIN 4 3f41 3c c 0 0 10 1c 0 1 $T0 $ebp = $eip $T0 4 + ^ = $ebp $T0 ^ = $esp $T0 8 + =  $20 $T0 32 - ^ =  $23 $T0 36 - ^ =  $24 $T0 40 - ^ = 
STACK WIN 4 3f69 4 0 0 0 10 1c 0 1 $T0 $ebp = $T2 $esp = $T1 .raSearchStart = $eip $T1 ^ = $ebp $T0 = $esp $T1 4 + = 
STACK WIN 4 3f7d 3a 5 0 4 0 0 0 1 $T0 $ebp = $eip $T0 4 + ^ = $ebp $T0 ^ = $esp $T0 8 + = 
STACK WIN 4 3f9e 17 0 0 4 4 0 0 1 $T0 $ebp = $eip $T0 4 + ^ = $ebp $T0 ^ = $esp $T0 8 + =  $23 $T0 4 - ^ = 
STACK WIN 4 3fb7 4e 6 0 4 0 0 0 1 $T0 $ebp = $eip $T0 4 + ^ = $ebp $T0 ^ = $esp $T0 8 + = 
STACK WIN 4 3fbd 46 0 0 4 4 0 0 1 $T0 $ebp = $eip $T0 4 + ^ = $ebp $T0 ^ = $esp $T0 8 + =  $23 $T0 4 - ^ = 
STACK WIN 4 4005 5a 9 0 c 0 0 0 1 $T0 $ebp = $eip $T0 4 + ^ = $ebp $T0 ^ = $esp $T0 8 + = 
STACK WIN 4 400e 27 0 0 c 4 0 0 1 $T0 $ebp = $eip $T0 4 + ^ = $ebp $T0 ^ = $esp $T0 8 + =  $23 $T0 4 - ^ = 
STACK WIN 4 4038 14 0 0 c 8 0 0 1 $T0 $ebp = $eip $T0 4 + ^ = $ebp $T0 ^ = $esp $T0 8 + =  $23 $T0 4 - ^ =  $24 $T0 8 - ^ = 
STACK WIN 4 405f 43 0 0 0 0 0 0 1 $T0 .raSearch = $eip $T0 ^ = $esp $T0 4 + = 
STACK WIN 4 40a2 5d 6 0 8 0 0 0 1 $T0 $ebp = $eip $T0 4 + ^ = $ebp $T0 ^ = $esp $T0 8 + = 
STACK WIN 4 40a8 55 0 0 8 4 0 0 1 $T0 $ebp = $eip $T0 4 + ^ = $ebp $T0 ^ = $esp $T0 8 + =  $23 $T0 4 - ^ = 
STACK WIN 4 40ff 83 8 0 4 0 0 0 1 $T0 $ebp = $eip $T0 4 + ^ = $ebp $T0 ^ = $esp $T0 8 + = 
STACK WIN 4 4105 79 2 0 4 4 0 0 1 $T0 $ebp = $eip $T0 4 + ^ = $ebp $T0 ^ = $esp $T0 8 + =  $24 $T0 4 - ^ = 
STACK WIN 4 4138 32 0 0 4 8 0 0 1 $T0 $ebp = $eip $T0 4 + ^ = $ebp $T0 ^ = $esp $T0 8 + =  $24 $T0 4 - ^ =  $23 $T0 8 - ^ = 
STACK WIN 4 4182 2a 5 0 c 0 0 0 1 $T0 $ebp = $eip $T0 4 + ^ = $ebp $T0 ^ = $esp $T0 8 + = 
STACK WIN 4 41ac 33 5 0 c 0 0 0 1 $T0 $ebp = $eip $T0 4 + ^ = $ebp $T0 ^ = $esp $T0 8 + = 
STACK WIN 4 41df 50 c 0 c 10 18 0 1 $T0 $ebp = $eip $T0 4 + ^ = $ebp $T0 ^ = $esp $T0 8 + =  $20 $T0 28 - ^ =  $23 $T0 32 - ^ =  $24 $T0 36 - ^ = 
STACK WIN 4 4223 b 0 0 c 10 18 0 1 $T0 $ebp = $T2 $esp = $T1 .raSearchStart = $eip $T1 ^ = $ebp $T0 = $esp $T1 4 + = 
STACK WIN 4 422f 61 c 0 c 10 18 0 1 $T0 $ebp = $eip $T0 4 + ^ = $ebp $T0 ^ = $esp $T0 8 + =  $20 $T0 28 - ^ =  $23 $T0 32 - ^ =  $24 $T0 36 - ^ = 
STACK WIN 4 4284 b 0 0 c 10 18 0 1 $T0 $ebp = $T2 $esp = $T1 .raSearchStart = $eip $T1 ^ = $ebp $T0 = $esp $T1 4 + = 
STACK WIN 4 4290 4b c 0 c 10 18 0 1 $T0 $ebp = $eip $T0 4 + ^ = $ebp $T0 ^ = $esp $T0 8 + =  $20 $T0 28 - ^ =  $23 $T0 32 - ^ =  $24 $T0 36 - ^ = 
STACK WIN 4 42cf b 0 0 c 10 18 0 1 $T0 $ebp = $T2 $esp = $T1 .raSearchStart = $eip $T1 ^ = $ebp $T0 = $esp $T1 4 + = 
STACK WIN 4 42db 48 c 0 c 10 18 0 1 $T0 $ebp = $eip $T0 4 + ^ = $ebp $T0 ^ = $esp $T0 8 + =  $20 $T0 28 - ^ =  $23 $T0 32 - ^ =  $24 $T0 36 - ^ = 
STACK WIN 4 4317 b 0 0 c 10 18 0 1 $T0 $ebp = $T2 $esp = $T1 .raSearchStart = $eip $T1 ^ = $ebp $T0 = $esp $T1 4 + = 
STACK WIN 4 4323 28 8 0 8 0 c 0 1 $T0 $ebp = $eip $T0 4 + ^ = $ebp $T0 ^ = $esp $T0 8 + = 
STACK WIN 4 434b 28 8 0 8 0 c 0 1 $T0 $ebp = $eip $T0 4 + ^ = $ebp $T0 ^ = $esp $T0 8 + = 
STACK WIN 4 4373 28 8 0 8 0 c 0 1 $T0 $ebp = $eip $T0 4 + ^ = $ebp $T0 ^ = $esp $T0 8 + = 
STACK WIN 4 439b 28 8 0 8 0 c 0 1 $T0 $ebp = $eip $T0 4 + ^ = $ebp $T0 ^ = $esp $T0 8 + = 
STACK WIN 4 43c3 79 7 0 8 0 8 0 1 $T0 $ebp = $eip $T0 4 + ^ = $ebp $T0 ^ = $esp $T0 8 + = 
STACK WIN 4 443c 21 5 0 4 0 0 0 1 $T0 $ebp = $eip $T0 4 + ^ = $ebp $T0 ^ = $esp $T0 8 + = 
STACK WIN 4 445d a9 6 0 4 0 4 0 1 $T0 $ebp = $eip $T0 4 + ^ = $ebp $T0 ^ = $esp $T0 8 + = 
STACK WIN 4 4506 4b 6 0 8 0 0 0 1 $T0 $ebp = $eip $T0 4 + ^ = $ebp $T0 ^ = $esp $T0 8 + = 
STACK WIN 4 450c 38 0 0 8 4 0 0 1 $T0 $ebp = $eip $T0 4 + ^ = $ebp $T0 ^ = $esp $T0 8 + =  $23 $T0 4 - ^ = 
STACK WIN 4 4551 84 4 0 0 0 0 0 1 $T0 .raSearch = $eip $T0 ^ = $esp $T0 4 + = 
STACK WIN 4 4554 73 1 0 0 4 0 0 1 $T0 .raSearch = $eip $T0 ^ = $esp $T0 4 + =  $23 $T0 4 - ^ = 
STACK WIN 4 4555 71 0 0 0 8 0 0 1 $T0 .raSearch = $eip $T0 ^ = $esp $T0 4 + =  $23 $T0 4 - ^ =  $24 $T0 8 - ^ = 
STACK WIN 4 45c8 d 0 0 0 8 0 0 1 $T0 .raSearch = $eip $T0 ^ = $esp $T0 4 + =  $23 $T0 4 - ^ =  $24 $T0 8 - ^ = 
STACK WIN 4 45d5 6a 6 0 0 0 0 0 1 $T0 .raSearch = $eip $T0 ^ = $esp $T0 4 + = 
STACK WIN 4 45db 5d 0 0 0 4 0 0 1 $T0 .raSearch = $eip $T0 ^ = $esp $T0 4 + =  $23 $T0 4 - ^ = 
STACK WIN 4 4639 6 0 0 0 4 0 0 1 $T0 .raSearch = $eip $T0 ^ = $esp $T0 4 + =  $23 $T0 4 - ^ = 
STACK WIN 4 463f 85 5 0 0 0 0 0 1 $T0 .raSearch = $eip $T0 ^ = $esp $T0 4 + = 
STACK WIN 4 4642 81 2 0 0 4 0 0 1 $T0 .raSearch = $eip $T0 ^ = $esp $T0 4 + =  $20 $T0 4 - ^ = 
STACK WIN 4 4643 7d 1 0 0 8 0 0 1 $T0 .raSearch = $eip $T0 ^ = $esp $T0 4 + =  $20 $T0 4 - ^ =  $23 $T0 8 - ^ = 
STACK WIN 4 4644 7b 0 0 0 c 0 0 1 $T0 .raSearch = $eip $T0 ^ = $esp $T0 4 + =  $20 $T0 4 - ^ =  $23 $T0 8 - ^ =  $24 $T0 12 - ^ = 
STACK WIN 4 46c4 2c 0 0 0 0 0 0 1 $T0 .raSearch = $eip $T0 ^ = $esp $T0 4 + = 
STACK WIN 4 46f0 1a 0 0 4 0 0 0 1 $T0 .raSearch = $eip $T0 ^ = $esp $T0 4 + = 
STACK WIN 4 470a 31 10 0 4 0 0 0 1 $T0 $ebp = $eip $T0 4 + ^ = $ebp $T0 ^ = $esp $T0 8 + = 
STACK WIN 4 471a 1d 0 0 4 4 0 0 1 $T0 $ebp = $eip $T0 4 + ^ = $ebp $T0 ^ = $esp $T0 8 + =  $23 $T0 4 - ^ = 
STACK WIN 4 473b 13b 1a 0 c 4 328 0 1 $T0 $ebp = $eip $T0 4 + ^ = $ebp $T0 ^ = $esp $T0 8 + =  $24 $T0 812 - ^ = 
STACK WIN 4 4876 14 5 0 4 0 0 0 1 $T0 $ebp = $eip $T0 4 + ^ = $ebp $T0 ^ = $esp $T0 8 + = 
STACK WIN 4 488a 7b 11 0 14 0 4 0 1 $T0 $ebp = $eip $T0 4 + ^ = $ebp $T0 ^ = $esp $T0 8 + = 
STACK WIN 4 489b 35 0 0 14 4 4 0 1 $T0 $ebp = $eip $T0 4 + ^ = $ebp $T0 ^ = $esp $T0 8 + =  $23 $T0 8 - ^ = 
STACK WIN 4 4905 10 0 0 0 0 0 0 1 $T0 .raSearch = $eip $T0 ^ = $esp $T0 4 + = 
STACK WIN 4 4915 33 0 0 14 0 0 0 1 $T0 .raSearch = $eip $T0 ^ = $esp $T0 4 + = 
STACK WIN 4 4926 21 0 0 14 4 0 0 1 $T0 .raSearch = $eip $T0 ^ = $esp $T0 4 + =  $23 $T0 4 - ^ = 
STACK WIN 4 4948 43 5 0 4 0 0 0 1 $T0 $ebp = $eip $T0 4 + ^ = $ebp $T0 ^ = $esp $T0 8 + = 
STACK WIN 4 498b 23 6 0 4 0 0 0 1 $T0 $ebp = $eip $T0 4 + ^ = $ebp $T0 ^ = $esp $T0 8 + = 
STACK WIN 4 4991 1b 0 0 4 4 0 0 1 $T0 $ebp = $eip $T0 4 + ^ = $ebp $T0 ^ = $esp $T0 8 + =  $23 $T0 4 - ^ = 
STACK WIN 4 49ae 13 0 0 0 0 0 0 1 $T0 .raSearch = $eip $T0 ^ = $esp $T0 4 + = 
STACK WIN 4 49c1 13 0 0 0 0 0 0 1 $T0 .raSearch = $eip $T0 ^ = $esp $T0 4 + = 
STACK WIN 4 49d4 18 5 0 8 0 0 0 1 $T0 $ebp = $eip $T0 4 + ^ = $ebp $T0 ^ = $esp $T0 8 + = 
STACK WIN 4 49ec 190 c 0 8 0 20 0 1 $T0 $ebp = $eip $T0 4 + ^ = $ebp $T0 ^ = $esp $T0 8 + = 
STACK WIN 4 49f8 173 0 0 8 4 20 0 1 $T0 $ebp = $eip $T0 4 + ^ = $ebp $T0 ^ = $esp $T0 8 + =  $23 $T0 36 - ^ = 
STACK WIN 4 4a18 152 0 0 8 8 20 0 1 $T0 $ebp = $eip $T0 4 + ^ = $ebp $T0 ^ = $esp $T0 8 + =  $23 $T0 36 - ^ =  $20 $T0 40 - ^ = 
STACK WIN 4 4a19 150 0 0 8 c 20 0 1 $T0 $ebp = $eip $T0 4 + ^ = $ebp $T0 ^ = $esp $T0 8 + =  $23 $T0 36 - ^ =  $20 $T0 40 - ^ =  $24 $T0 44 - ^ = 
STACK WIN 4 4b7c 96 6 0 10 0 4 0 1 $T0 $ebp = $eip $T0 4 + ^ = $ebp $T0 ^ = $esp $T0 8 + = 
STACK WIN 4 4b95 6c 0 0 10 4 4 0 1 $T0 $ebp = $eip $T0 4 + ^ = $ebp $T0 ^ = $esp $T0 8 + =  $24 $T0 8 - ^ = 
STACK WIN 4 4ba8 58 0 0 10 8 4 0 1 $T0 $ebp = $eip $T0 4 + ^ = $ebp $T0 ^ = $esp $T0 8 + =  $24 $T0 8 - ^ =  $20 $T0 12 - ^ = 
STACK WIN 4 4ba9 56 0 0 10 c 4 0 1 $T0 $ebp = $eip $T0 4 + ^ = $ebp $T0 ^ = $esp $T0 8 + =  $24 $T0 8 - ^ =  $20 $T0 12 - ^ =  $23 $T0 16 - ^ = 
STACK WIN 4 4c12 184 21 0 c 0 150 0 1 $T0 $ebp = $eip $T0 4 + ^ = $ebp $T0 ^ = $esp $T0 8 + = 
STACK WIN 4 4c2b cd 8 0 c 4 150 0 1 $T0 $ebp = $eip $T0 4 + ^ = $ebp $T0 ^ = $esp $T0 8 + =  $20 $T0 340 - ^ = 
STACK WIN 4 4c2f c6 4 0 c 8 150 0 1 $T0 $ebp = $eip $T0 4 + ^ = $ebp $T0 ^ = $esp $T0 8 + =  $20 $T0 340 - ^ =  $23 $T0 344 - ^ = 
STACK WIN 4 4c33 c1 0 0 c c 150 0 1 $T0 $ebp = $eip $T0 4 + ^ = $ebp $T0 ^ = $esp $T0 8 + =  $20 $T0 340 - ^ =  $23 $T0 344 - ^ =  $24 $T0 348 - ^ = 
STACK WIN 4 4d96 25 6 0 0 0 0 0 1 $T0 .raSearch = $eip $T0 ^ = $esp $T0 4 + = 
STACK WIN 4 4d99 21 3 0 0 4 0 0 1 $T0 .raSearch = $eip $T0 ^ = $esp $T0 4 + =  $23 $T0 4 - ^ = 
STACK WIN 4 4d9a 1f 2 0 0 8 0 0 1 $T0 .raSearch = $eip $T0 ^ = $esp $T0 4 + =  $23 $T0 4 - ^ =  $24 $T0 8 - ^ = 
STACK WIN 4 4dbb 35 9 0 4 0 0 0 1 $T0 $ebp = $eip $T0 4 + ^ = $ebp $T0 ^ = $esp $T0 8 + = 
STACK WIN 4 4dc1 2b 3 0 4 4 0 0 1 $T0 $ebp = $eip $T0 4 + ^ = $ebp $T0 ^ = $esp $T0 8 + =  $23 $T0 4 - ^ = 
STACK WIN 4 4dc2 29 2 0 4 8 0 0 1 $T0 $ebp = $eip $T0 4 + ^ = $ebp $T0 ^ = $esp $T0 8 + =  $23 $T0 4 - ^ =  $24 $T0 8 - ^ = 
STACK WIN 4 4df0 87 5 0 0 0 0 0 1 $T0 .raSearch = $eip $T0 ^ = $esp $T0 4 + = 
STACK WIN 4 4df3 83 2 0 0 4 0 0 1 $T0 .raSearch = $eip $T0 ^ = $esp $T0 4 + =  $23 $T0 4 - ^ = 
STACK WIN 4 4df6 7f 0 0 0 8 0 0 1 $T0 .raSearch = $eip $T0 ^ = $esp $T0 4 + =  $23 $T0 4 - ^ =  $24 $T0 8 - ^ = 
STACK WIN 4 4e40 34 0 0 0 c 0 0 1 $T0 .raSearch = $eip $T0 ^ = $esp $T0 4 + =  $23 $T0 4 - ^ =  $24 $T0 8 - ^ =  $20 $T0 12 - ^ = 
STACK WIN 4 4e77 b 5 0 8 0 0 0 1 $T0 $ebp = $eip $T0 4 + ^ = $ebp $T0 ^ = $esp $T0 8 + = 
STACK WIN 4 4e82 43 c 0 c 10 18 0 1 $T0 $ebp = $eip $T0 4 + ^ = $ebp $T0 ^ = $esp $T0 8 + =  $20 $T0 28 - ^ =  $23 $T0 32 - ^ =  $24 $T0 36 - ^ = 
STACK WIN 4 4eb9 b 0 0 c 10 18 0 1 $T0 $ebp = $T2 $esp = $T1 .raSearchStart = $eip $T1 ^ = $ebp $T0 = $esp $T1 4 + = 
STACK WIN 4 4ec5 28 8 0 8 0 c 0 1 $T0 $ebp = $eip $T0 4 + ^ = $ebp $T0 ^ = $esp $T0 8 + = 
STACK WIN 4 4eed 83 5 0 0 0 0 0 1 $T0 .raSearch = $eip $T0 ^ = $esp $T0 4 + = 
STACK WIN 4 4ef0 7f 2 0 0 4 0 0 1 $T0 .raSearch = $eip $T0 ^ = $esp $T0 4 + =  $23 $T0 4 - ^ = 
STACK WIN 4 4f70 3e 5 0 4 0 0 0 1 $T0 $ebp = $eip $T0 4 + ^ = $ebp $T0 ^ = $esp $T0 8 + = 
STACK WIN 4 4fae 73 8 0 4 0 10 0 1 $T0 $ebp = $eip $T0 4 + ^ = $ebp $T0 ^ = $esp $T0 8 + = 
STACK WIN 4 5021 31 10 0 4 0 0 0 1 $T0 $ebp = $eip $T0 4 + ^ = $ebp $T0 ^ = $esp $T0 8 + = 
STACK WIN 4 5031 1d 0 0 4 4 0 0 1 $T0 $ebp = $eip $T0 4 + ^ = $ebp $T0 ^ = $esp $T0 8 + =  $23 $T0 4 - ^ = 
STACK WIN 4 5052 65 b 0 4 0 0 0 1 $T0 $ebp = $eip $T0 4 + ^ = $ebp $T0 ^ = $esp $T0 8 + = 
STACK WIN 4 5058 5d 5 0 4 4 0 0 1 $T0 $ebp = $eip $T0 4 + ^ = $ebp $T0 ^ = $esp $T0 8 + =  $20 $T0 4 - ^ = 
STACK WIN 4 505c 58 1 0 4 8 0 0 1 $T0 $ebp = $eip $T0 4 + ^ = $ebp $T0 ^ = $esp $T0 8 + =  $20 $T0 4 - ^ =  $23 $T0 8 - ^ = 
STACK WIN 4 505d 56 0 0 4 c 0 0 1 $T0 $ebp = $eip $T0 4 + ^ = $ebp $T0 ^ = $esp $T0 8 + =  $20 $T0 4 - ^ =  $23 $T0 8 - ^ =  $24 $T0 12 - ^ = 
STACK WIN 4 50b7 194 21 0 4 0 720 0 1 $T0 $ebp = $eip $T0 4 + ^ = $ebp $T0 ^ = $esp $T0 8 + = 
STACK WIN 4 50cd 175 b 0 4 4 720 0 1 $T0 $ebp = $eip $T0 4 + ^ = $ebp $T0 ^ = $esp $T0 8 + =  $20 $T0 1828 - ^ = 
STACK WIN 4 50ce 171 a 0 4 8 720 0 1 $T0 $ebp = $eip $T0 4 + ^ = $ebp $T0 ^ = $esp $T0 8 + =  $20 $T0 1828 - ^ =  $23 $T0 1832 - ^ = 
STACK WIN 4 50d8 166 0 0 4 c 720 0 1 $T0 $ebp = $eip $T0 4 + ^ = $ebp $T0 ^ = $esp $T0 8 + =  $20 $T0 1828 - ^ =  $23 $T0 1832 - ^ =  $24 $T0 1836 - ^ = 
STACK WIN 4 524b 10d 8 0 10 0 c 0 1 $T0 $ebp = $eip $T0 4 + ^ = $ebp $T0 ^ = $esp $T0 8 + = 
STACK WIN 4 527e 52 0 0 10 4 c 0 1 $T0 $ebp = $eip $T0 4 + ^ = $ebp $T0 ^ = $esp $T0 8 + =  $20 $T0 16 - ^ = 
STACK WIN 4 527f 50 0 0 10 8 c 0 1 $T0 $ebp = $eip $T0 4 + ^ = $ebp $T0 ^ = $esp $T0 8 + =  $20 $T0 16 - ^ =  $23 $T0 20 - ^ = 
STACK WIN 4 5280 4c 0 0 10 c c 0 1 $T0 $ebp = $eip $T0 4 + ^ = $ebp $T0 ^ = $esp $T0 8 + =  $20 $T0 16 - ^ =  $23 $T0 20 - ^ =  $24 $T0 24 - ^ = 
STACK WIN 4 5358 93 c 0 8 10 1c 0 1 $T0 $ebp = $eip $T0 4 + ^ = $ebp $T0 ^ = $esp $T0 8 + =  $20 $T0 32 - ^ =  $23 $T0 36 - ^ =  $24 $T0 40 - ^ = 
STACK WIN 4 53d7 b 0 0 8 10 1c 0 1 $T0 $ebp = $T2 $esp = $T1 .raSearchStart = $eip $T1 ^ = $ebp $T0 = $esp $T1 4 + = 
STACK WIN 4 53eb 4d 0 0 0 0 0 0 1 $T0 .raSearch = $eip $T0 ^ = $esp $T0 4 + = 
STACK WIN 4 53f5 40 0 0 0 4 0 0 1 $T0 .raSearch = $eip $T0 ^ = $esp $T0 4 + =  $23 $T0 4 - ^ = 
STACK WIN 4 5438 14 0 0 0 0 0 0 1 $T0 .raSearch = $eip $T0 ^ = $esp $T0 4 + = 
STACK WIN 4 544c 1f1 14 0 8 0 20 0 1 $T0 $ebp = $eip $T0 4 + ^ = $ebp $T0 ^ = $esp $T0 8 + = 
STACK WIN 4 545f 1d5 1 0 8 4 20 0 1 $T0 $ebp = $eip $T0 4 + ^ = $ebp $T0 ^ = $esp $T0 8 + =  $20 $T0 36 - ^ = 
STACK WIN 4 5460 1d1 0 0 8 8 20 0 1 $T0 $ebp = $eip $T0 4 + ^ = $ebp $T0 ^ = $esp $T0 8 + =  $20 $T0 36 - ^ =  $23 $T0 40 - ^ = 
STACK WIN 4 5481 1ac 0 0 8 c 20 0 1 $T0 $ebp = $eip $T0 4 + ^ = $ebp $T0 ^ = $esp $T0 8 + =  $20 $T0 36 - ^ =  $23 $T0 40 - ^ =  $24 $T0 44 - ^ = 
STACK WIN 4 563d 81 6 0 10 0 0 0 1 $T0 $ebp = $eip $T0 4 + ^ = $ebp $T0 ^ = $esp $T0 8 + = 
STACK WIN 4 5643 79 0 0 10 4 0 0 1 $T0 $ebp = $eip $T0 4 + ^ = $ebp $T0 ^ = $esp $T0 8 + =  $23 $T0 4 - ^ = 
STACK WIN 4 5669 52 0 0 10 8 0 0 1 $T0 $ebp = $eip $T0 4 + ^ = $ebp $T0 ^ = $esp $T0 8 + =  $23 $T0 4 - ^ =  $24 $T0 8 - ^ = 
STACK WIN 4 56be 59 9 0 10 0 10 0 1 $T0 $ebp = $eip $T0 4 + ^ = $ebp $T0 ^ = $esp $T0 8 + = 
STACK WIN 4 56c7 3e 0 0 10 4 10 0 1 $T0 $ebp = $eip $T0 4 + ^ = $ebp $T0 ^ = $esp $T0 8 + =  $23 $T0 20 - ^ = 
STACK WIN 4 5717 18 5 0 4 0 0 0 1 $T0 $ebp = $eip $T0 4 + ^ = $ebp $T0 ^ = $esp $T0 8 + = 
STACK WIN 4 572f 37 9 0 4 0 0 0 1 $T0 $ebp = $eip $T0 4 + ^ = $ebp $T0 ^ = $esp $T0 8 + = 
STACK WIN 4 5738 2c 0 0 4 4 0 0 1 $T0 $ebp = $eip $T0 4 + ^ = $ebp $T0 ^ = $esp $T0 8 + =  $24 $T0 4 - ^ = 
STACK WIN 4 5740 20 0 0 4 8 0 0 1 $T0 $ebp = $eip $T0 4 + ^ = $ebp $T0 ^ = $esp $T0 8 + =  $24 $T0 4 - ^ =  $23 $T0 8 - ^ = 
STACK WIN 4 5766 83 9 0 0 0 4 0 1 $T0 $ebp = $eip $T0 4 + ^ = $ebp $T0 ^ = $esp $T0 8 + = 
STACK WIN 4 576d 78 2 0 0 4 4 0 1 $T0 $ebp = $eip $T0 4 + ^ = $ebp $T0 ^ = $esp $T0 8 + =  $20 $T0 8 - ^ = 
STACK WIN 4 576e 74 1 0 0 8 4 0 1 $T0 $ebp = $eip $T0 4 + ^ = $ebp $T0 ^ = $esp $T0 8 + =  $20 $T0 8 - ^ =  $23 $T0 12 - ^ = 
STACK WIN 4 576f 72 0 0 0 c 4 0 1 $T0 $ebp = $eip $T0 4 + ^ = $ebp $T0 ^ = $esp $T0 8 + =  $20 $T0 8 - ^ =  $23 $T0 12 - ^ =  $24 $T0 16 - ^ = 
STACK WIN 4 57e9 23b 9 0 8 0 c 0 1 $T0 $ebp = $eip $T0 4 + ^ = $ebp $T0 ^ = $esp $T0 8 + = 
STACK WIN 4 57f2 94 0 0 8 4 c 0 1 $T0 $ebp = $eip $T0 4 + ^ = $ebp $T0 ^ = $esp $T0 8 + =  $20 $T0 16 - ^ = 
STACK WIN 4 580a 7b 0 0 8 8 c 0 1 $T0 $ebp = $eip $T0 4 + ^ = $ebp $T0 ^ = $esp $T0 8 + =  $20 $T0 16 - ^ =  $23 $T0 20 - ^ = 
STACK WIN 4 580b 77 0 0 8 c c 0 1 $T0 $ebp = $eip $T0 4 + ^ = $ebp $T0 ^ = $esp $T0 8 + =  $20 $T0 16 - ^ =  $23 $T0 20 - ^ =  $24 $T0 24 - ^ = 
STACK WIN 4 5a24 b1 7 0 4 0 4 0 1 $T0 $ebp = $eip $T0 4 + ^ = $ebp $T0 ^ = $esp $T0 8 + = 
STACK WIN 4 5a2b 94 0 0 4 4 4 0 1 $T0 $ebp = $eip $T0 4 + ^ = $ebp $T0 ^ = $esp $T0 8 + =  $24 $T0 8 - ^ = 
STACK WIN 4 5a4b 73 0 0 4 8 4 0 1 $T0 $ebp = $eip $T0 4 + ^ = $ebp $T0 ^ = $esp $T0 8 + =  $24 $T0 8 - ^ =  $23 $T0 12 - ^ = 
STACK WIN 4 5a64 4f 0 0 4 c 4 0 1 $T0 $ebp = $eip $T0 4 + ^ = $ebp $T0 ^ = $esp $T0 8 + =  $24 $T0 8 - ^ =  $23 $T0 12 - ^ =  $20 $T0 16 - ^ = 
STACK WIN 4 5ac3 12 0 0 4 4 4 0 1 $T0 $ebp = $eip $T0 4 + ^ = $ebp $T0 ^ = $esp $T0 8 + =  $24 $T0 8 - ^ =  $23 $T0 12 - ^ =  $20 $T0 16 - ^ = 
STACK WIN 4 5ad5 54 8 0 8 0 0 0 1 $T0 $ebp = $eip $T0 4 + ^ = $ebp $T0 ^ = $esp $T0 8 + = 
STACK WIN 4 5adb 45 2 0 8 4 0 0 1 $T0 $ebp = $eip $T0 4 + ^ = $ebp $T0 ^ = $esp $T0 8 + =  $20 $T0 4 - ^ = 
STACK WIN 4 5adc 43 1 0 8 8 0 0 1 $T0 $ebp = $eip $T0 4 + ^ = $ebp $T0 ^ = $esp $T0 8 + =  $20 $T0 4 - ^ =  $23 $T0 8 - ^ = 
STACK WIN 4 5add 3f 0 0 8 c 0 0 1 $T0 $ebp = $eip $T0 4 + ^ = $ebp $T0 ^ = $esp $T0 8 + =  $20 $T0 4 - ^ =  $23 $T0 8 - ^ =  $24 $T0 12 - ^ = 
STACK WIN 4 5b29 b 5 0 8 0 0 0 1 $T0 $ebp = $eip $T0 4 + ^ = $ebp $T0 ^ = $esp $T0 8 + = 
STACK WIN 4 5b34 41 4 0 0 0 0 0 1 $T0 .raSearch = $eip $T0 ^ = $esp $T0 4 + = 
STACK WIN 4 5b37 3d 1 0 0 4 0 0 1 $T0 .raSearch = $eip $T0 ^ = $esp $T0 4 + =  $23 $T0 4 - ^ = 
STACK WIN 4 5b38 3b 0 0 0 8 0 0 1 $T0 .raSearch = $eip $T0 ^ = $esp $T0 4 + =  $23 $T0 4 - ^ =  $24 $T0 8 - ^ = 
STACK WIN 4 5b75 17 5 0 4 0 0 0 1 $T0 $ebp = $eip $T0 4 + ^ = $ebp $T0 ^ = $esp $T0 8 + = 
STACK WIN 4 5b8c 31 3 0 4 0 0 0 1 $T0 .raSearch = $eip $T0 ^ = $esp $T0 4 + = 
STACK WIN 4 5b8f 2d 0 0 4 4 0 0 1 $T0 .raSearch = $eip $T0 ^ = $esp $T0 4 + =  $23 $T0 4 - ^ = 
STACK WIN 4 5b9d 1c 0 0 4 8 0 0 1 $T0 .raSearch = $eip $T0 ^ = $esp $T0 4 + =  $23 $T0 4 - ^ =  $24 $T0 8 - ^ = 
STACK WIN 4 5bbd 17 5 0 4 0 0 0 1 $T0 $ebp = $eip $T0 4 + ^ = $ebp $T0 ^ = $esp $T0 8 + = 
STACK WIN 4 5bd4 1a 0 0 0 0 0 0 1 $T0 .raSearch = $eip $T0 ^ = $esp $T0 4 + = 
STACK WIN 4 5bee 1a 0 0 0 0 0 0 1 $T0 .raSearch = $eip $T0 ^ = $esp $T0 4 + = 
STACK WIN 4 5c08 1a 0 0 0 0 0 0 1 $T0 .raSearch = $eip $T0 ^ = $esp $T0 4 + = 
STACK WIN 4 5c22 9c b 0 10 0 0 0 1 $T0 $ebp = $eip $T0 4 + ^ = $ebp $T0 ^ = $esp $T0 8 + = 
STACK WIN 4 5c2b 91 2 0 10 4 0 0 1 $T0 $ebp = $eip $T0 4 + ^ = $ebp $T0 ^ = $esp $T0 8 + =  $20 $T0 4 - ^ = 
STACK WIN 4 5c2c 8f 1 0 10 8 0 0 1 $T0 $ebp = $eip $T0 4 + ^ = $ebp $T0 ^ = $esp $T0 8 + =  $20 $T0 4 - ^ =  $23 $T0 8 - ^ = 
STACK WIN 4 5c2d 8d 0 0 10 c 0 0 1 $T0 $ebp = $eip $T0 4 + ^ = $ebp $T0 ^ = $esp $T0 8 + =  $20 $T0 4 - ^ =  $23 $T0 8 - ^ =  $24 $T0 12 - ^ = 
STACK WIN 4 5cbe 7b 9 0 4 0 0 0 1 $T0 $ebp = $eip $T0 4 + ^ = $ebp $T0 ^ = $esp $T0 8 + = 
STACK WIN 4 5cc7 70 0 0 4 4 0 0 1 $T0 $ebp = $eip $T0 4 + ^ = $ebp $T0 ^ = $esp $T0 8 + =  $24 $T0 4 - ^ = 
STACK WIN 4 5ce0 56 0 0 4 8 0 0 1 $T0 $ebp = $eip $T0 4 + ^ = $ebp $T0 ^ = $esp $T0 8 + =  $24 $T0 4 - ^ =  $20 $T0 8 - ^ = 
STACK WIN 4 5ce8 4d 0 0 4 c 0 0 1 $T0 $ebp = $eip $T0 4 + ^ = $ebp $T0 ^ = $esp $T0 8 + =  $24 $T0 4 - ^ =  $20 $T0 8 - ^ =  $23 $T0 12 - ^ = 
STACK WIN 4 5d39 74 11 0 24 0 4 0 1 $T0 $ebp = $eip $T0 4 + ^ = $ebp $T0 ^ = $esp $T0 8 + = 
STACK WIN 4 5d4a 58 0 0 24 4 4 0 1 $T0 $ebp = $eip $T0 4 + ^ = $ebp $T0 ^ = $esp $T0 8 + =  $23 $T0 8 - ^ = 
STACK WIN 4 5dad 56 11 0 4 0 4 0 1 $T0 $ebp = $eip $T0 4 + ^ = $ebp $T0 ^ = $esp $T0 8 + = 
STACK WIN 4 5dbe 3a 0 0 4 4 4 0 1 $T0 $ebp = $eip $T0 4 + ^ = $ebp $T0 ^ = $esp $T0 8 + =  $23 $T0 8 - ^ = 
STACK WIN 4 5e03 56 11 0 4 0 4 0 1 $T0 $ebp = $eip $T0 4 + ^ = $ebp $T0 ^ = $esp $T0 8 + = 
STACK WIN 4 5e14 3a 0 0 4 4 4 0 1 $T0 $ebp = $eip $T0 4 + ^ = $ebp $T0 ^ = $esp $T0 8 + =  $23 $T0 8 - ^ = 
STACK WIN 4 5e59 56 11 0 4 0 4 0 1 $T0 $ebp = $eip $T0 4 + ^ = $ebp $T0 ^ = $esp $T0 8 + = 
STACK WIN 4 5e6a 3a 0 0 4 4 4 0 1 $T0 $ebp = $eip $T0 4 + ^ = $ebp $T0 ^ = $esp $T0 8 + =  $23 $T0 8 - ^ = 
STACK WIN 4 5eaf 59 11 0 8 0 4 0 1 $T0 $ebp = $eip $T0 4 + ^ = $ebp $T0 ^ = $esp $T0 8 + = 
STACK WIN 4 5ec0 3d 0 0 8 4 4 0 1 $T0 $ebp = $eip $T0 4 + ^ = $ebp $T0 ^ = $esp $T0 8 + =  $23 $T0 8 - ^ = 
STACK WIN 4 5f08 62 11 0 c 0 4 0 1 $T0 $ebp = $eip $T0 4 + ^ = $ebp $T0 ^ = $esp $T0 8 + = 
STACK WIN 4 5f19 46 0 0 c 4 4 0 1 $T0 $ebp = $eip $T0 4 + ^ = $ebp $T0 ^ = $esp $T0 8 + =  $23 $T0 8 - ^ = 
STACK WIN 4 5f6a 74 11 0 24 0 4 0 1 $T0 $ebp = $eip $T0 4 + ^ = $ebp $T0 ^ = $esp $T0 8 + = 
STACK WIN 4 5f7b 58 0 0 24 4 4 0 1 $T0 $ebp = $eip $T0 4 + ^ = $ebp $T0 ^ = $esp $T0 8 + =  $23 $T0 8 - ^ = 
STACK WIN 4 5fde 48 11 0 8 0 4 0 1 $T0 $ebp = $eip $T0 4 + ^ = $ebp $T0 ^ = $esp $T0 8 + = 
STACK WIN 4 5fef 2c 0 0 8 4 4 0 1 $T0 $ebp = $eip $T0 4 + ^ = $ebp $T0 ^ = $esp $T0 8 + =  $23 $T0 8 - ^ = 
STACK WIN 4 6026 26 6 0 0 0 0 0 1 $T0 .raSearch = $eip $T0 ^ = $esp $T0 4 + = 
STACK WIN 4 602c 1f 0 0 0 4 0 0 1 $T0 .raSearch = $eip $T0 ^ = $esp $T0 4 + =  $24 $T0 4 - ^ = 
STACK WIN 4 604c 87 11 0 0 0 8 0 1 $T0 $ebp = $eip $T0 4 + ^ = $ebp $T0 ^ = $esp $T0 8 + = 
STACK WIN 4 6072 53 0 0 0 4 8 0 1 $T0 $ebp = $eip $T0 4 + ^ = $ebp $T0 ^ = $esp $T0 8 + =  $23 $T0 12 - ^ = 
STACK WIN 4 60d3 36 5 0 4 0 0 0 1 $T0 $ebp = $eip $T0 4 + ^ = $ebp $T0 ^ = $esp $T0 8 + = 
STACK WIN 4 60df 26 0 0 4 4 0 0 1 $T0 $ebp = $eip $T0 4 + ^ = $ebp $T0 ^ = $esp $T0 8 + =  $23 $T0 4 - ^ = 
STACK WIN 4 6109 7a 9 0 0 0 8 0 1 $T0 $ebp = $eip $T0 4 + ^ = $ebp $T0 ^ = $esp $T0 8 + = 
STACK WIN 4 6111 6e 1 0 0 4 8 0 1 $T0 $ebp = $eip $T0 4 + ^ = $ebp $T0 ^ = $esp $T0 8 + =  $20 $T0 12 - ^ = 
STACK WIN 4 6112 6c 0 0 0 8 8 0 1 $T0 $ebp = $eip $T0 4 + ^ = $ebp $T0 ^ = $esp $T0 8 + =  $20 $T0 12 - ^ =  $24 $T0 16 - ^ = 
STACK WIN 4 6137 3d 0 0 0 c 8 0 1 $T0 $ebp = $eip $T0 4 + ^ = $ebp $T0 ^ = $esp $T0 8 + =  $20 $T0 12 - ^ =  $24 $T0 16 - ^ =  $23 $T0 20 - ^ = 
STACK WIN 4 6183 35 6 0 4 0 0 0 1 $T0 $ebp = $eip $T0 4 + ^ = $ebp $T0 ^ = $esp $T0 8 + = 
STACK WIN 4 6189 2d 0 0 4 4 0 0 1 $T0 $ebp = $eip $T0 4 + ^ = $ebp $T0 ^ = $esp $T0 8 + =  $23 $T0 4 - ^ = 
STACK WIN 4 6191 24 0 0 4 8 0 0 1 $T0 $ebp = $eip $T0 4 + ^ = $ebp $T0 ^ = $esp $T0 8 + =  $23 $T0 4 - ^ =  $20 $T0 8 - ^ = 
STACK WIN 4 6198 1c 0 0 4 c 0 0 1 $T0 $ebp = $eip $T0 4 + ^ = $ebp $T0 ^ = $esp $T0 8 + =  $23 $T0 4 - ^ =  $20 $T0 8 - ^ =  $24 $T0 12 - ^ = 
STACK WIN 4 61b8 98 c 0 4 10 24 0 1 $T0 $ebp = $eip $T0 4 + ^ = $ebp $T0 ^ = $esp $T0 8 + =  $20 $T0 40 - ^ =  $23 $T0 44 - ^ =  $24 $T0 48 - ^ = 
STACK WIN 4 6244 b 0 0 4 10 24 0 1 $T0 $ebp = $T2 $esp = $T1 .raSearchStart = $eip $T1 ^ = $ebp $T0 = $esp $T1 4 + = 
STACK WIN 4 6250 23 5 0 4 0 0 0 1 $T0 $ebp = $eip $T0 4 + ^ = $ebp $T0 ^ = $esp $T0 8 + = 
STACK WIN 4 6273 23 5 0 4 0 0 0 1 $T0 $ebp = $eip $T0 4 + ^ = $ebp $T0 ^ = $esp $T0 8 + = 
STACK WIN 4 6296 91 b 0 4 0 0 0 1 $T0 $ebp = $eip $T0 4 + ^ = $ebp $T0 ^ = $esp $T0 8 + = 
STACK WIN 4 629c 89 5 0 4 4 0 0 1 $T0 $ebp = $eip $T0 4 + ^ = $ebp $T0 ^ = $esp $T0 8 + =  $20 $T0 4 - ^ = 
STACK WIN 4 629d 87 4 0 4 8 0 0 1 $T0 $ebp = $eip $T0 4 + ^ = $ebp $T0 ^ = $esp $T0 8 + =  $20 $T0 4 - ^ =  $23 $T0 8 - ^ = 
STACK WIN 4 62a1 82 0 0 4 c 0 0 1 $T0 $ebp = $eip $T0 4 + ^ = $ebp $T0 ^ = $esp $T0 8 + =  $20 $T0 4 - ^ =  $23 $T0 8 - ^ =  $24 $T0 12 - ^ = 
STACK WIN 4 6327 6a 5 0 4 0 0 0 1 $T0 $ebp = $eip $T0 4 + ^ = $ebp $T0 ^ = $esp $T0 8 + = 
STACK WIN 4 6391 b6 8 0 0 0 48 0 1 $T0 $ebp = $eip $T0 4 + ^ = $ebp $T0 ^ = $esp $T0 8 + = 
STACK WIN 4 63ba 89 0 0 0 4 48 0 1 $T0 $ebp = $eip $T0 4 + ^ = $ebp $T0 ^ = $esp $T0 8 + =  $20 $T0 76 - ^ = 
STACK WIN 4 63bb 87 0 0 0 8 48 0 1 $T0 $ebp = $eip $T0 4 + ^ = $ebp $T0 ^ = $esp $T0 8 + =  $20 $T0 76 - ^ =  $23 $T0 80 - ^ = 
STACK WIN 4 63e4 5d 0 0 0 c 48 0 1 $T0 $ebp = $eip $T0 4 + ^ = $ebp $T0 ^ = $esp $T0 8 + =  $20 $T0 76 - ^ =  $23 $T0 80 - ^ =  $24 $T0 84 - ^ = 
STACK WIN 4 6447 b6 5 0 0 0 0 0 1 $T0 .raSearch = $eip $T0 ^ = $esp $T0 4 + = 
STACK WIN 4 644a b2 2 0 0 4 0 0 1 $T0 .raSearch = $eip $T0 ^ = $esp $T0 4 + =  $20 $T0 4 - ^ = 
STACK WIN 4 644b b0 1 0 0 8 0 0 1 $T0 .raSearch = $eip $T0 ^ = $esp $T0 4 + =  $20 $T0 4 - ^ =  $23 $T0 8 - ^ = 
STACK WIN 4 644c ae 0 0 0 c 0 0 1 $T0 .raSearch = $eip $T0 ^ = $esp $T0 4 + =  $20 $T0 4 - ^ =  $23 $T0 8 - ^ =  $24 $T0 12 - ^ = 
STACK WIN 4 64fd 56 c 0 0 10 1c 0 1 $T0 $ebp = $eip $T0 4 + ^ = $ebp $T0 ^ = $esp $T0 8 + =  $20 $T0 32 - ^ =  $23 $T0 36 - ^ =  $24 $T0 40 - ^ = 
STACK WIN 4 6547 b 0 0 0 10 1c 0 1 $T0 $ebp = $T2 $esp = $T1 .raSearchStart = $eip $T1 ^ = $ebp $T0 = $esp $T1 4 + = 
STACK WIN 4 6553 2c 3 0 4 0 0 0 1 $T0 .raSearch = $eip $T0 ^ = $esp $T0 4 + = 
STACK WIN 4 6556 28 0 0 4 4 0 0 1 $T0 .raSearch = $eip $T0 ^ = $esp $T0 4 + =  $23 $T0 4 - ^ = 
STACK WIN 4 657f 26 6 0 0 0 4 0 1 $T0 $ebp = $eip $T0 4 + ^ = $ebp $T0 ^ = $esp $T0 8 + = 
STACK WIN 4 65a5 fe 6 0 4 0 0 0 1 $T0 $ebp = $eip $T0 4 + ^ = $ebp $T0 ^ = $esp $T0 8 + = 
STACK WIN 4 65ab f6 0 0 4 4 0 0 1 $T0 $ebp = $eip $T0 4 + ^ = $ebp $T0 ^ = $esp $T0 8 + =  $23 $T0 4 - ^ = 
STACK WIN 4 66a3 69 6 0 4 0 0 0 1 $T0 $ebp = $eip $T0 4 + ^ = $ebp $T0 ^ = $esp $T0 8 + = 
STACK WIN 4 66a9 61 0 0 4 4 0 0 1 $T0 $ebp = $eip $T0 4 + ^ = $ebp $T0 ^ = $esp $T0 8 + =  $23 $T0 4 - ^ = 
STACK WIN 4 670c 3c e 0 8 0 0 0 1 $T0 $ebp = $eip $T0 4 + ^ = $ebp $T0 ^ = $esp $T0 8 + = 
STACK WIN 4 6715 31 5 0 8 4 0 0 1 $T0 $ebp = $eip $T0 4 + ^ = $ebp $T0 ^ = $esp $T0 8 + =  $20 $T0 4 - ^ = 
STACK WIN 4 6716 2f 4 0 8 8 0 0 1 $T0 $ebp = $eip $T0 4 + ^ = $ebp $T0 ^ = $esp $T0 8 + =  $20 $T0 4 - ^ =  $23 $T0 8 - ^ = 
STACK WIN 4 671a 2a 0 0 8 c 0 0 1 $T0 $ebp = $eip $T0 4 + ^ = $ebp $T0 ^ = $esp $T0 8 + =  $20 $T0 4 - ^ =  $23 $T0 8 - ^ =  $24 $T0 12 - ^ = 
STACK WIN 4 6748 e4 6 0 4 0 0 0 1 $T0 $ebp = $eip $T0 4 + ^ = $ebp $T0 ^ = $esp $T0 8 + = 
STACK WIN 4 674e dc 0 0 4 4 0 0 1 $T0 $ebp = $eip $T0 4 + ^ = $ebp $T0 ^ = $esp $T0 8 + =  $23 $T0 4 - ^ = 
STACK WIN 4 682c 11d 15 0 1c c 18 0 1 $T0 $ebp = $eip $T0 4 + ^ = $ebp $T0 ^ = $esp $T0 8 + =  $20 $T0 28 - ^ =  $23 $T0 32 - ^ =  $24 $T0 36 - ^ = 
STACK WIN 4 6949 20 5 0 4 0 0 0 1 $T0 $ebp = $eip $T0 4 + ^ = $ebp $T0 ^ = $esp $T0 8 + = 
STACK WIN 4 6969 7d 5 0 4 0 0 0 1 $T0 $ebp = $eip $T0 4 + ^ = $ebp $T0 ^ = $esp $T0 8 + = 
STACK WIN 4 69a7 3d 0 0 4 4 0 0 1 $T0 $ebp = $eip $T0 4 + ^ = $ebp $T0 ^ = $esp $T0 8 + =  $23 $T0 4 - ^ = 
STACK WIN 4 69e6 14a c 0 4 0 4 0 1 $T0 $ebp = $eip $T0 4 + ^ = $ebp $T0 ^ = $esp $T0 8 + = 
STACK WIN 4 69ed 13f 5 0 4 4 4 0 1 $T0 $ebp = $eip $T0 4 + ^ = $ebp $T0 ^ = $esp $T0 8 + =  $20 $T0 8 - ^ = 
STACK WIN 4 69ee 13d 4 0 4 8 4 0 1 $T0 $ebp = $eip $T0 4 + ^ = $ebp $T0 ^ = $esp $T0 8 + =  $20 $T0 8 - ^ =  $23 $T0 12 - ^ = 
STACK WIN 4 69f2 138 0 0 4 c 4 0 1 $T0 $ebp = $eip $T0 4 + ^ = $ebp $T0 ^ = $esp $T0 8 + =  $20 $T0 8 - ^ =  $23 $T0 12 - ^ =  $24 $T0 16 - ^ = 
STACK WIN 4 6b30 29 5 0 4 0 0 0 1 $T0 $ebp = $eip $T0 4 + ^ = $ebp $T0 ^ = $esp $T0 8 + = 
STACK WIN 4 6b59 30 6 0 4 0 0 0 1 $T0 $ebp = $eip $T0 4 + ^ = $ebp $T0 ^ = $esp $T0 8 + = 
STACK WIN 4 6b5f 28 0 0 4 4 0 0 1 $T0 $ebp = $eip $T0 4 + ^ = $ebp $T0 ^ = $esp $T0 8 + =  $23 $T0 4 - ^ = 
STACK WIN 4 6b89 29 5 0 4 0 0 0 1 $T0 $ebp = $eip $T0 4 + ^ = $ebp $T0 ^ = $esp $T0 8 + = 
STACK WIN 4 6bb2 81 5 0 4 0 0 0 1 $T0 $ebp = $eip $T0 4 + ^ = $ebp $T0 ^ = $esp $T0 8 + = 
STACK WIN 4 6bf4 3d 0 0 4 4 0 0 1 $T0 $ebp = $eip $T0 4 + ^ = $ebp $T0 ^ = $esp $T0 8 + =  $23 $T0 4 - ^ = 
STACK WIN 4 6c33 77 c 0 0 10 1c 0 1 $T0 $ebp = $eip $T0 4 + ^ = $ebp $T0 ^ = $esp $T0 8 + =  $20 $T0 32 - ^ =  $23 $T0 36 - ^ =  $24 $T0 40 - ^ = 
STACK WIN 4 6c96 b 0 0 0 10 1c 0 1 $T0 $ebp = $T2 $esp = $T1 .raSearchStart = $eip $T1 ^ = $ebp $T0 = $esp $T1 4 + = 
STACK WIN 4 6caa 50 a 0 8 0 0 0 1 $T0 $ebp = $eip $T0 4 + ^ = $ebp $T0 ^ = $esp $T0 8 + = 
STACK WIN 4 6cb0 48 4 0 8 4 0 0 1 $T0 $ebp = $eip $T0 4 + ^ = $ebp $T0 ^ = $esp $T0 8 + =  $23 $T0 4 - ^ = 
STACK WIN 4 6cb4 43 0 0 8 8 0 0 1 $T0 $ebp = $eip $T0 4 + ^ = $ebp $T0 ^ = $esp $T0 8 + =  $23 $T0 4 - ^ =  $24 $T0 8 - ^ = 
STACK WIN 4 6cfa b 5 0 c 0 0 0 1 $T0 $ebp = $eip $T0 4 + ^ = $ebp $T0 ^ = $esp $T0 8 + = 
STACK WIN 4 6d05 6d 6 0 c 0 0 0 1 $T0 $ebp = $eip $T0 4 + ^ = $ebp $T0 ^ = $esp $T0 8 + = 
STACK WIN 4 6d0b 65 0 0 c 4 0 0 1 $T0 $ebp = $eip $T0 4 + ^ = $ebp $T0 ^ = $esp $T0 8 + =  $23 $T0 4 - ^ = 
STACK WIN 4 6d2e 41 0 0 c 8 0 0 1 $T0 $ebp = $eip $T0 4 + ^ = $ebp $T0 ^ = $esp $T0 8 + =  $23 $T0 4 - ^ =  $20 $T0 8 - ^ = 
STACK WIN 4 6d32 3a 0 0 c c 0 0 1 $T0 $ebp = $eip $T0 4 + ^ = $ebp $T0 ^ = $esp $T0 8 + =  $23 $T0 4 - ^ =  $20 $T0 8 - ^ =  $24 $T0 12 - ^ = 
STACK WIN 4 6d72 11 0 0 0 0 0 0 1 $T0 .raSearch = $eip $T0 ^ = $esp $T0 4 + = 
STACK WIN 4 6d83 a 0 0 4 0 0 0 1 $T0 .raSearch = $eip $T0 ^ = $esp $T0 4 + = 
STACK WIN 4 6d8d 83 11 0 8 0 4 0 1 $T0 $ebp = $eip $T0 4 + ^ = $ebp $T0 ^ = $esp $T0 8 + = 
STACK WIN 4 6d9e 69 0 0 8 4 4 0 1 $T0 $ebp = $eip $T0 4 + ^ = $ebp $T0 ^ = $esp $T0 8 + =  $24 $T0 8 - ^ = 
STACK WIN 4 6dab 56 0 0 8 8 4 0 1 $T0 $ebp = $eip $T0 4 + ^ = $ebp $T0 ^ = $esp $T0 8 + =  $24 $T0 8 - ^ =  $23 $T0 12 - ^ = 
STACK WIN 4 6dae 52 0 0 8 c 4 0 1 $T0 $ebp = $eip $T0 4 + ^ = $ebp $T0 ^ = $esp $T0 8 + =  $24 $T0 8 - ^ =  $23 $T0 12 - ^ =  $20 $T0 16 - ^ = 
STACK WIN 4 6e10 4d 11 0 8 0 4 0 1 $T0 $ebp = $eip $T0 4 + ^ = $ebp $T0 ^ = $esp $T0 8 + = 
STACK WIN 4 6e21 33 0 0 8 4 4 0 1 $T0 $ebp = $eip $T0 4 + ^ = $ebp $T0 ^ = $esp $T0 8 + =  $23 $T0 8 - ^ = 
STACK WIN 4 6e2d 1f 0 0 8 8 4 0 1 $T0 $ebp = $eip $T0 4 + ^ = $ebp $T0 ^ = $esp $T0 8 + =  $23 $T0 8 - ^ =  $24 $T0 12 - ^ = 
STACK WIN 4 6e5d 31 10 0 4 0 0 0 1 $T0 $ebp = $eip $T0 4 + ^ = $ebp $T0 ^ = $esp $T0 8 + = 
STACK WIN 4 6e6d 1d 0 0 4 4 0 0 1 $T0 $ebp = $eip $T0 4 + ^ = $ebp $T0 ^ = $esp $T0 8 + =  $23 $T0 4 - ^ = 
STACK WIN 4 6e8e 14 5 0 4 0 0 0 1 $T0 $ebp = $eip $T0 4 + ^ = $ebp $T0 ^ = $esp $T0 8 + = 
STACK WIN 4 6ea2 44 11 0 4 0 4 0 1 $T0 $ebp = $eip $T0 4 + ^ = $ebp $T0 ^ = $esp $T0 8 + = 
STACK WIN 4 6eb3 2a 0 0 4 4 4 0 1 $T0 $ebp = $eip $T0 4 + ^ = $ebp $T0 ^ = $esp $T0 8 + =  $23 $T0 8 - ^ = 
STACK WIN 4 6ee6 52 c 0 0 10 1c 0 1 $T0 $ebp = $eip $T0 4 + ^ = $ebp $T0 ^ = $esp $T0 8 + =  $20 $T0 32 - ^ =  $23 $T0 36 - ^ =  $24 $T0 40 - ^ = 
STACK WIN 4 6f2c b 0 0 0 10 1c 0 1 $T0 $ebp = $T2 $esp = $T1 .raSearchStart = $eip $T1 ^ = $ebp $T0 = $esp $T1 4 + = 
STACK WIN 4 6f38 5a c 0 c 10 1c 0 1 $T0 $ebp = $eip $T0 4 + ^ = $ebp $T0 ^ = $esp $T0 8 + =  $20 $T0 32 - ^ =  $23 $T0 36 - ^ =  $24 $T0 40 - ^ = 
STACK WIN 4 6f83 e 0 0 c 10 1c 0 1 $T0 $ebp = $T2 $esp = $T1 .raSearchStart = $eip $T1 ^ = $ebp $T0 = $esp $T1 4 + = 
STACK WIN 4 6f92 28 8 0 8 0 c 0 1 $T0 $ebp = $eip $T0 4 + ^ = $ebp $T0 ^ = $esp $T0 8 + = 
STACK WIN 4 6fba 42 5 0 4 0 0 0 1 $T0 $ebp = $eip $T0 4 + ^ = $ebp $T0 ^ = $esp $T0 8 + = 
STACK WIN 4 6ffc 31 10 0 4 0 0 0 1 $T0 $ebp = $eip $T0 4 + ^ = $ebp $T0 ^ = $esp $T0 8 + = 
STACK WIN 4 700c 1d 0 0 4 4 0 0 1 $T0 $ebp = $eip $T0 4 + ^ = $ebp $T0 ^ = $esp $T0 8 + =  $23 $T0 4 - ^ = 
STACK WIN 4 702d 28 5 0 8 0 0 0 1 $T0 $ebp = $eip $T0 4 + ^ = $ebp $T0 ^ = $esp $T0 8 + = 
STACK WIN 4 7055 17 6 0 0 0 4 0 1 $T0 $ebp = $eip $T0 4 + ^ = $ebp $T0 ^ = $esp $T0 8 + = 
STACK WIN 4 706c 3b 5 0 4 0 0 0 1 $T0 $ebp = $eip $T0 4 + ^ = $ebp $T0 ^ = $esp $T0 8 + = 
STACK WIN 4 70a7 9 0 0 0 0 0 0 1 $T0 .raSearch = $eip $T0 ^ = $esp $T0 4 + = 
STACK WIN 4 70b0 208 c 0 4 10 3c 0 1 $T0 $ebp = $eip $T0 4 + ^ = $ebp $T0 ^ = $esp $T0 8 + =  $20 $T0 64 - ^ =  $23 $T0 68 - ^ =  $24 $T0 72 - ^ = 
STACK WIN 4 7261 1d 0 0 4 10 3c 0 1 $T0 $ebp = $T2 $esp = $T1 .raSearchStart = $eip $T1 ^ = $ebp $T0 = $esp $T1 4 + = 
STACK WIN 4 72b8 ab 5 0 4 0 0 0 1 $T0 $ebp = $eip $T0 4 + ^ = $ebp $T0 ^ = $esp $T0 8 + = 
STACK WIN 4 72cd 6f 0 0 4 4 0 0 1 $T0 $ebp = $eip $T0 4 + ^ = $ebp $T0 ^ = $esp $T0 8 + =  $20 $T0 4 - ^ = 
STACK WIN 4 72ce 6d 0 0 4 8 0 0 1 $T0 $ebp = $eip $T0 4 + ^ = $ebp $T0 ^ = $esp $T0 8 + =  $20 $T0 4 - ^ =  $23 $T0 8 - ^ = 
STACK WIN 4 72cf 69 0 0 4 c 0 0 1 $T0 $ebp = $eip $T0 4 + ^ = $ebp $T0 ^ = $esp $T0 8 + =  $20 $T0 4 - ^ =  $23 $T0 8 - ^ =  $24 $T0 12 - ^ = 
STACK WIN 4 7363 302 8 0 8 0 10 0 1 $T0 $ebp = $eip $T0 4 + ^ = $ebp $T0 ^ = $esp $T0 8 + = 
STACK WIN 4 73a3 2be 0 0 8 4 10 0 1 $T0 $ebp = $eip $T0 4 + ^ = $ebp $T0 ^ = $esp $T0 8 + =  $20 $T0 20 - ^ = 
STACK WIN 4 73a4 2bc 0 0 8 8 10 0 1 $T0 $ebp = $eip $T0 4 + ^ = $ebp $T0 ^ = $esp $T0 8 + =  $20 $T0 20 - ^ =  $23 $T0 24 - ^ = 
STACK WIN 4 73af 2b0 0 0 8 c 10 0 1 $T0 $ebp = $eip $T0 4 + ^ = $ebp $T0 ^ = $esp $T0 8 + =  $20 $T0 20 - ^ =  $23 $T0 24 - ^ =  $24 $T0 28 - ^ = 
STACK WIN 4 7665 99 5 0 4 0 0 0 1 $T0 $ebp = $eip $T0 4 + ^ = $ebp $T0 ^ = $esp $T0 8 + = 
STACK WIN 4 76a1 4e 0 0 4 4 0 0 1 $T0 $ebp = $eip $T0 4 + ^ = $ebp $T0 ^ = $esp $T0 8 + =  $23 $T0 4 - ^ = 
STACK WIN 4 76a9 45 0 0 4 8 0 0 1 $T0 $ebp = $eip $T0 4 + ^ = $ebp $T0 ^ = $esp $T0 8 + =  $23 $T0 4 - ^ =  $24 $T0 8 - ^ = 
STACK WIN 4 76fe 14a c 0 c 0 1c 0 1 $T0 $ebp = $eip $T0 4 + ^ = $ebp $T0 ^ = $esp $T0 8 + = 
STACK WIN 4 770a 13a 0 0 c 4 1c 0 1 $T0 $ebp = $eip $T0 4 + ^ = $ebp $T0 ^ = $esp $T0 8 + =  $20 $T0 32 - ^ = 
STACK WIN 4 7848 1d 5 0 8 0 0 0 1 $T0 $ebp = $eip $T0 4 + ^ = $ebp $T0 ^ = $esp $T0 8 + = 
STACK WIN 4 7865 1a 5 0 8 0 0 0 1 $T0 $ebp = $eip $T0 4 + ^ = $ebp $T0 ^ = $esp $T0 8 + = 
STACK WIN 4 787f fa a 0 10 0 10 0 1 $T0 $ebp = $eip $T0 4 + ^ = $ebp $T0 ^ = $esp $T0 8 + = 
STACK WIN 4 7888 24 1 0 10 4 10 0 1 $T0 $ebp = $eip $T0 4 + ^ = $ebp $T0 ^ = $esp $T0 8 + =  $20 $T0 20 - ^ = 
STACK WIN 4 7889 22 0 0 10 8 10 0 1 $T0 $ebp = $eip $T0 4 + ^ = $ebp $T0 ^ = $esp $T0 8 + =  $20 $T0 20 - ^ =  $23 $T0 24 - ^ = 
STACK WIN 4 78b1 c3 0 0 10 c 10 0 1 $T0 $ebp = $eip $T0 4 + ^ = $ebp $T0 ^ = $esp $T0 8 + =  $20 $T0 20 - ^ =  $23 $T0 24 - ^ =  $24 $T0 28 - ^ = 
STACK WIN 4 7979 1a 5 0 c 0 0 0 1 $T0 $ebp = $eip $T0 4 + ^ = $ebp $T0 ^ = $esp $T0 8 + = 
STACK WIN 4 7993 2d 6 0 8 0 0 0 1 $T0 $ebp = $eip $T0 4 + ^ = $ebp $T0 ^ = $esp $T0 8 + = 
STACK WIN 4 7999 25 0 0 8 4 0 0 1 $T0 $ebp = $eip $T0 4 + ^ = $ebp $T0 ^ = $esp $T0 8 + =  $23 $T0 4 - ^ = 
STACK WIN 4 79c0 2d 6 0 8 0 0 0 1 $T0 $ebp = $eip $T0 4 + ^ = $ebp $T0 ^ = $esp $T0 8 + = 
STACK WIN 4 79c6 25 0 0 8 4 0 0 1 $T0 $ebp = $eip $T0 4 + ^ = $ebp $T0 ^ = $esp $T0 8 + =  $23 $T0 4 - ^ = 
STACK WIN 4 79ed 26 5 0 4 0 0 0 1 $T0 $ebp = $eip $T0 4 + ^ = $ebp $T0 ^ = $esp $T0 8 + = 
STACK WIN 4 7a13 c8 6 0 0 0 0 0 1 $T0 .raSearch = $eip $T0 ^ = $esp $T0 4 + = 
STACK WIN 4 7a19 c1 0 0 0 4 0 0 1 $T0 .raSearch = $eip $T0 ^ = $esp $T0 4 + =  $23 $T0 4 - ^ = 
STACK WIN 4 7a7e 59 0 0 0 8 0 0 1 $T0 .raSearch = $eip $T0 ^ = $esp $T0 4 + =  $23 $T0 4 - ^ =  $24 $T0 8 - ^ = 
STACK WIN 4 7adb 4c 3 0 0 0 0 0 1 $T0 .raSearch = $eip $T0 ^ = $esp $T0 4 + = 
STACK WIN 4 7ade 48 0 0 0 4 0 0 1 $T0 .raSearch = $eip $T0 ^ = $esp $T0 4 + =  $23 $T0 4 - ^ = 
STACK WIN 4 7b27 14 5 0 4 0 0 0 1 $T0 $ebp = $eip $T0 4 + ^ = $ebp $T0 ^ = $esp $T0 8 + = 
STACK WIN 4 7b3b 14 5 0 4 0 0 0 1 $T0 $ebp = $eip $T0 4 + ^ = $ebp $T0 ^ = $esp $T0 8 + = 
STACK WIN 4 7b4f d2 13 0 c 0 24 0 1 $T0 $ebp = $eip $T0 4 + ^ = $ebp $T0 ^ = $esp $T0 8 + = 
STACK WIN 4 7b62 b6 0 0 c 4 24 0 1 $T0 $ebp = $eip $T0 4 + ^ = $ebp $T0 ^ = $esp $T0 8 + =  $20 $T0 40 - ^ = 
STACK WIN 4 7c30 96 14 0 10 0 4 0 1 $T0 $ebp = $eip $T0 4 + ^ = $ebp $T0 ^ = $esp $T0 8 + = 
STACK WIN 4 7c44 79 0 0 10 4 4 0 1 $T0 $ebp = $eip $T0 4 + ^ = $ebp $T0 ^ = $esp $T0 8 + =  $20 $T0 8 - ^ = 
STACK WIN 4 7c4f 68 0 0 10 8 4 0 1 $T0 $ebp = $eip $T0 4 + ^ = $ebp $T0 ^ = $esp $T0 8 + =  $20 $T0 8 - ^ =  $23 $T0 12 - ^ = 
STACK WIN 4 7c50 66 0 0 10 c 4 0 1 $T0 $ebp = $eip $T0 4 + ^ = $ebp $T0 ^ = $esp $T0 8 + =  $20 $T0 8 - ^ =  $23 $T0 12 - ^ =  $24 $T0 16 - ^ = 
STACK WIN 4 7cd0 39 9 0 c 0 0 0 1 $T0 $ebp = $eip $T0 4 + ^ = $ebp $T0 ^ = $esp $T0 8 + = 
STACK WIN 4 7cd9 2e 0 0 c 4 0 0 1 $T0 $ebp = $eip $T0 4 + ^ = $ebp $T0 ^ = $esp $T0 8 + =  $24 $T0 4 - ^ = 
STACK WIN 4 7ce1 25 0 0 c 8 0 0 1 $T0 $ebp = $eip $T0 4 + ^ = $ebp $T0 ^ = $esp $T0 8 + =  $24 $T0 4 - ^ =  $23 $T0 8 - ^ = 
STACK WIN 4 7d10 39a 2c 0 10 0 11c 0 1 $T0 $ebp = $eip $T0 4 + ^ = $ebp $T0 ^ = $esp $T0 8 + = 
STACK WIN 4 7d32 36f a 0 10 4 11c 0 1 $T0 $ebp = $eip $T0 4 + ^ = $ebp $T0 ^ = $esp $T0 8 + =  $23 $T0 288 - ^ = 
STACK WIN 4 7d3c 362 0 0 10 8 11c 0 1 $T0 $ebp = $eip $T0 4 + ^ = $ebp $T0 ^ = $esp $T0 8 + =  $23 $T0 288 - ^ =  $24 $T0 292 - ^ = 
STACK WIN 4 7d8d 30d 0 0 10 c 11c 0 1 $T0 $ebp = $eip $T0 4 + ^ = $ebp $T0 ^ = $esp $T0 8 + =  $23 $T0 288 - ^ =  $24 $T0 292 - ^ =  $20 $T0 296 - ^ = 
STACK WIN 4 80aa b1 d 0 10 0 4 0 1 $T0 $ebp = $eip $T0 4 + ^ = $ebp $T0 ^ = $esp $T0 8 + = 
STACK WIN 4 80b7 40 0 0 10 4 4 0 1 $T0 $ebp = $eip $T0 4 + ^ = $ebp $T0 ^ = $esp $T0 8 + =  $23 $T0 8 - ^ = 
STACK WIN 4 80fc 3f 0 0 10 8 4 0 1 $T0 $ebp = $eip $T0 4 + ^ = $ebp $T0 ^ = $esp $T0 8 + =  $23 $T0 8 - ^ =  $20 $T0 12 - ^ = 
STACK WIN 4 8101 37 0 0 10 c 4 0 1 $T0 $ebp = $eip $T0 4 + ^ = $ebp $T0 ^ = $esp $T0 8 + =  $23 $T0 8 - ^ =  $20 $T0 12 - ^ =  $24 $T0 16 - ^ = 
STACK WIN 4 815b b 5 0 10 0 0 0 1 $T0 $ebp = $eip $T0 4 + ^ = $ebp $T0 ^ = $esp $T0 8 + = 
STACK WIN 4 81b0 17 5 0 8 0 0 0 1 $T0 $ebp = $eip $T0 4 + ^ = $ebp $T0 ^ = $esp $T0 8 + = 
STACK WIN 4 81c7 8d 8 0 c 0 10 0 1 $T0 $ebp = $eip $T0 4 + ^ = $ebp $T0 ^ = $esp $T0 8 + = 
STACK WIN 4 81ea 66 0 0 c 4 10 0 1 $T0 $ebp = $eip $T0 4 + ^ = $ebp $T0 ^ = $esp $T0 8 + =  $23 $T0 20 - ^ = 
STACK WIN 4 8254 f 0 0 0 0 0 0 1 $T0 .raSearch = $eip $T0 ^ = $esp $T0 4 + = 
STACK WIN 4 8263 21d 17 0 24 c 8 0 1 $T0 $ebp = $eip $T0 4 + ^ = $ebp $T0 ^ = $esp $T0 8 + =  $20 $T0 12 - ^ =  $23 $T0 16 - ^ =  $24 $T0 20 - ^ = 
STACK WIN 4 8480 4b 8 0 24 0 10 0 1 $T0 $ebp = $eip $T0 4 + ^ = $ebp $T0 ^ = $esp $T0 8 + = 
STACK WIN 4 84cb 29 5 0 c 0 0 0 1 $T0 $ebp = $eip $T0 4 + ^ = $ebp $T0 ^ = $esp $T0 8 + = 
STACK WIN 4 84f4 ca e 0 10 0 10 0 1 $T0 $ebp = $eip $T0 4 + ^ = $ebp $T0 ^ = $esp $T0 8 + = 
STACK WIN 4 8500 ba 2 0 10 4 10 0 1 $T0 $ebp = $eip $T0 4 + ^ = $ebp $T0 ^ = $esp $T0 8 + =  $20 $T0 20 - ^ = 
STACK WIN 4 8501 b8 1 0 10 8 10 0 1 $T0 $ebp = $eip $T0 4 + ^ = $ebp $T0 ^ = $esp $T0 8 + =  $20 $T0 20 - ^ =  $23 $T0 24 - ^ = 
STACK WIN 4 8502 b4 0 0 10 c 10 0 1 $T0 $ebp = $eip $T0 4 + ^ = $ebp $T0 ^ = $esp $T0 8 + =  $20 $T0 20 - ^ =  $23 $T0 24 - ^ =  $24 $T0 28 - ^ = 
STACK WIN 4 85be bc b 0 4 0 10 0 1 $T0 $ebp = $eip $T0 4 + ^ = $ebp $T0 ^ = $esp $T0 8 + = 
STACK WIN 4 85c7 af 2 0 4 4 10 0 1 $T0 $ebp = $eip $T0 4 + ^ = $ebp $T0 ^ = $esp $T0 8 + =  $20 $T0 20 - ^ = 
STACK WIN 4 85c8 ad 1 0 4 8 10 0 1 $T0 $ebp = $eip $T0 4 + ^ = $ebp $T0 ^ = $esp $T0 8 + =  $20 $T0 20 - ^ =  $23 $T0 24 - ^ = 
STACK WIN 4 85c9 ab 0 0 4 c 10 0 1 $T0 $ebp = $eip $T0 4 + ^ = $ebp $T0 ^ = $esp $T0 8 + =  $20 $T0 20 - ^ =  $23 $T0 24 - ^ =  $24 $T0 28 - ^ = 
STACK WIN 4 867a 2c 5 0 4 0 0 0 1 $T0 $ebp = $eip $T0 4 + ^ = $ebp $T0 ^ = $esp $T0 8 + = 
STACK WIN 4 86a6 33 5 0 4 0 0 0 1 $T0 $ebp = $eip $T0 4 + ^ = $ebp $T0 ^ = $esp $T0 8 + = 
STACK WIN 4 86d9 69 6 0 8 0 0 0 1 $T0 $ebp = $eip $T0 4 + ^ = $ebp $T0 ^ = $esp $T0 8 + = 
STACK WIN 4 86df 37 0 0 8 4 0 0 1 $T0 $ebp = $eip $T0 4 + ^ = $ebp $T0 ^ = $esp $T0 8 + =  $24 $T0 4 - ^ = 
STACK WIN 4 86f2 23 0 0 8 8 0 0 1 $T0 $ebp = $eip $T0 4 + ^ = $ebp $T0 ^ = $esp $T0 8 + =  $24 $T0 4 - ^ =  $23 $T0 8 - ^ = 
STACK WIN 4 8742 56 5 0 4 0 0 0 1 $T0 $ebp = $eip $T0 4 + ^ = $ebp $T0 ^ = $esp $T0 8 + = 
STACK WIN 4 8798 66 9 0 4 0 0 0 1 $T0 $ebp = $eip $T0 4 + ^ = $ebp $T0 ^ = $esp $T0 8 + = 
STACK WIN 4 87a1 5b 0 0 4 4 0 0 1 $T0 $ebp = $eip $T0 4 + ^ = $ebp $T0 ^ = $esp $T0 8 + =  $23 $T0 4 - ^ = 
STACK WIN 4 87ba 41 0 0 4 8 0 0 1 $T0 $ebp = $eip $T0 4 + ^ = $ebp $T0 ^ = $esp $T0 8 + =  $23 $T0 4 - ^ =  $24 $T0 8 - ^ = 
STACK WIN 4 87fe 47 6 0 4 0 0 0 1 $T0 $ebp = $eip $T0 4 + ^ = $ebp $T0 ^ = $esp $T0 8 + = 
STACK WIN 4 8804 3f 0 0 4 4 0 0 1 $T0 $ebp = $eip $T0 4 + ^ = $ebp $T0 ^ = $esp $T0 8 + =  $23 $T0 4 - ^ = 
STACK WIN 4 8845 9 0 0 0 0 0 0 1 $T0 .raSearch = $eip $T0 ^ = $esp $T0 4 + = 
STACK WIN 4 884e d8 c 0 4 10 2c 0 1 $T0 $ebp = $eip $T0 4 + ^ = $ebp $T0 ^ = $esp $T0 8 + =  $20 $T0 48 - ^ =  $23 $T0 52 - ^ =  $24 $T0 56 - ^ = 
STACK WIN 4 88ed f 0 0 4 10 2c 0 1 $T0 $ebp = $T2 $esp = $T1 .raSearchStart = $eip $T1 ^ = $ebp $T0 = $esp $T1 4 + = 
STACK WIN 4 891a b 0 0 4 10 2c 0 1 $T0 $ebp = $T2 $esp = $T1 .raSearchStart = $eip $T1 ^ = $ebp $T0 = $esp $T1 4 + = 
STACK WIN 4 8926 76 c 0 4 10 18 0 1 $T0 $ebp = $eip $T0 4 + ^ = $ebp $T0 ^ = $esp $T0 8 + =  $20 $T0 28 - ^ =  $23 $T0 32 - ^ =  $24 $T0 36 - ^ = 
STACK WIN 4 8955 1c 0 0 4 10 18 0 1 $T0 $ebp = $T2 $esp = $T1 .raSearchStart = $eip $T1 ^ = $ebp $T0 = $esp $T1 4 + = 
STACK WIN 4 899c 13 6 0 0 0 4 0 1 $T0 $ebp = $eip $T0 4 + ^ = $ebp $T0 ^ = $esp $T0 8 + = 
STACK WIN 4 89af 2c 7 0 8 0 8 0 1 $T0 $ebp = $eip $T0 4 + ^ = $ebp $T0 ^ = $esp $T0 8 + = 
STACK WIN 4 89db 5b b 0 4 0 c 0 1 $T0 $ebp = $eip $T0 4 + ^ = $ebp $T0 ^ = $esp $T0 8 + = 
STACK WIN 4 8a36 12 6 0 0 0 4 0 1 $T0 $ebp = $eip $T0 4 + ^ = $ebp $T0 ^ = $esp $T0 8 + = 
STACK WIN 4 8a48 39 8 0 8 0 10 0 1 $T0 $ebp = $eip $T0 4 + ^ = $ebp $T0 ^ = $esp $T0 8 + = 
STACK WIN 4 8a81 a0 c 0 0 10 20 0 1 $T0 $ebp = $eip $T0 4 + ^ = $ebp $T0 ^ = $esp $T0 8 + =  $20 $T0 36 - ^ =  $23 $T0 40 - ^ =  $24 $T0 44 - ^ = 
STACK WIN 4 8b18 8 0 0 0 10 20 0 1 $T0 $ebp = $T2 $esp = $T1 .raSearchStart = $eip $T1 ^ = $ebp $T0 = $esp $T1 4 + = 
STACK WIN 4 8b21 3e a 0 4 0 0 0 1 $T0 $ebp = $eip $T0 4 + ^ = $ebp $T0 ^ = $esp $T0 8 + = 
STACK WIN 4 8b27 36 4 0 4 4 0 0 1 $T0 $ebp = $eip $T0 4 + ^ = $ebp $T0 ^ = $esp $T0 8 + =  $23 $T0 4 - ^ = 
STACK WIN 4 8b2b 31 0 0 4 8 0 0 1 $T0 $ebp = $eip $T0 4 + ^ = $ebp $T0 ^ = $esp $T0 8 + =  $23 $T0 4 - ^ =  $24 $T0 8 - ^ = 
STACK WIN 4 8b5f 1c 5 0 8 0 0 0 1 $T0 $ebp = $eip $T0 4 + ^ = $ebp $T0 ^ = $esp $T0 8 + = 
STACK WIN 4 8b7b 6c b 0 c 0 0 0 1 $T0 $ebp = $eip $T0 4 + ^ = $ebp $T0 ^ = $esp $T0 8 + = 
STACK WIN 4 8b86 5f 0 0 c 4 0 0 1 $T0 $ebp = $eip $T0 4 + ^ = $ebp $T0 ^ = $esp $T0 8 + =  $23 $T0 4 - ^ = 
STACK WIN 4 8be7 b7 8 0 10 0 10 0 1 $T0 $ebp = $eip $T0 4 + ^ = $ebp $T0 ^ = $esp $T0 8 + = 
STACK WIN 4 8bfa 9c 0 0 10 4 10 0 1 $T0 $ebp = $eip $T0 4 + ^ = $ebp $T0 ^ = $esp $T0 8 + =  $20 $T0 20 - ^ = 
STACK WIN 4 8bfb 9a 0 0 10 8 10 0 1 $T0 $ebp = $eip $T0 4 + ^ = $ebp $T0 ^ = $esp $T0 8 + =  $20 $T0 20 - ^ =  $23 $T0 24 - ^ = 
STACK WIN 4 8bfc 96 0 0 10 c 10 0 1 $T0 $ebp = $eip $T0 4 + ^ = $ebp $T0 ^ = $esp $T0 8 + =  $20 $T0 20 - ^ =  $23 $T0 24 - ^ =  $24 $T0 28 - ^ = 
STACK WIN 4 8c9e 2a8 2a 0 20 c 2c 0 1 $T0 $ebp = $eip $T0 4 + ^ = $ebp $T0 ^ = $esp $T0 8 + =  $20 $T0 48 - ^ =  $23 $T0 52 - ^ =  $24 $T0 56 - ^ = 
STACK WIN 4 8f46 48 8 0 20 0 10 0 1 $T0 $ebp = $eip $T0 4 + ^ = $ebp $T0 ^ = $esp $T0 8 + = 
STACK WIN 4 8f8e 98 c 0 c 10 1c 0 1 $T0 $ebp = $eip $T0 4 + ^ = $ebp $T0 ^ = $esp $T0 8 + =  $20 $T0 32 - ^ =  $23 $T0 36 - ^ =  $24 $T0 40 - ^ = 
STACK WIN 4 9017 e 0 0 c 10 1c 0 1 $T0 $ebp = $T2 $esp = $T1 .raSearchStart = $eip $T1 ^ = $ebp $T0 = $esp $T1 4 + = 
STACK WIN 4 9026 28 8 0 8 0 c 0 1 $T0 $ebp = $eip $T0 4 + ^ = $ebp $T0 ^ = $esp $T0 8 + = 
STACK WIN 4 904e 6f 7 0 4 0 4 0 1 $T0 $ebp = $eip $T0 4 + ^ = $ebp $T0 ^ = $esp $T0 8 + = 
STACK WIN 4 9055 64 0 0 4 4 4 0 1 $T0 $ebp = $eip $T0 4 + ^ = $ebp $T0 ^ = $esp $T0 8 + =  $23 $T0 8 - ^ = 
STACK WIN 4 90bd 1b3 2a 0 10 0 38 0 1 $T0 $ebp = $eip $T0 4 + ^ = $ebp $T0 ^ = $esp $T0 8 + = 
STACK WIN 4 90db 18c c 0 10 4 38 0 1 $T0 $ebp = $eip $T0 4 + ^ = $ebp $T0 ^ = $esp $T0 8 + =  $20 $T0 60 - ^ = 
STACK WIN 4 90df 185 8 0 10 8 38 0 1 $T0 $ebp = $eip $T0 4 + ^ = $ebp $T0 ^ = $esp $T0 8 + =  $20 $T0 60 - ^ =  $23 $T0 64 - ^ = 
STACK WIN 4 90e7 17c 0 0 10 c 38 0 1 $T0 $ebp = $eip $T0 4 + ^ = $ebp $T0 ^ = $esp $T0 8 + =  $20 $T0 60 - ^ =  $23 $T0 64 - ^ =  $24 $T0 68 - ^ = 
STACK WIN 4 9270 6d e 0 c 0 4 0 1 $T0 $ebp = $eip $T0 4 + ^ = $ebp $T0 ^ = $esp $T0 8 + = 
STACK WIN 4 9277 62 7 0 c 4 4 0 1 $T0 $ebp = $eip $T0 4 + ^ = $ebp $T0 ^ = $esp $T0 8 + =  $20 $T0 8 - ^ = 
STACK WIN 4 9278 60 6 0 c 8 4 0 1 $T0 $ebp = $eip $T0 4 + ^ = $ebp $T0 ^ = $esp $T0 8 + =  $20 $T0 8 - ^ =  $23 $T0 12 - ^ = 
STACK WIN 4 927e 57 0 0 c c 4 0 1 $T0 $ebp = $eip $T0 4 + ^ = $ebp $T0 ^ = $esp $T0 8 + =  $20 $T0 8 - ^ =  $23 $T0 12 - ^ =  $24 $T0 16 - ^ = 
STACK WIN 4 92dd 76 7 0 4 0 4 0 1 $T0 $ebp = $eip $T0 4 + ^ = $ebp $T0 ^ = $esp $T0 8 + = 
STACK WIN 4 92e4 6b 0 0 4 4 4 0 1 $T0 $ebp = $eip $T0 4 + ^ = $ebp $T0 ^ = $esp $T0 8 + =  $23 $T0 8 - ^ = 
STACK WIN 4 92f7 57 0 0 4 8 4 0 1 $T0 $ebp = $eip $T0 4 + ^ = $ebp $T0 ^ = $esp $T0 8 + =  $23 $T0 8 - ^ =  $24 $T0 12 - ^ = 
STACK WIN 4 9353 df 37 0 10 0 1410 0 1 $T0 $ebp = $eip $T0 4 + ^ = $ebp $T0 ^ = $esp $T0 8 + = 
STACK WIN 4 937b ae f 0 10 4 1410 0 1 $T0 $ebp = $eip $T0 4 + ^ = $ebp $T0 ^ = $esp $T0 8 + =  $20 $T0 5140 - ^ = 
STACK WIN 4 9386 a0 4 0 10 8 1410 0 1 $T0 $ebp = $eip $T0 4 + ^ = $ebp $T0 ^ = $esp $T0 8 + =  $20 $T0 5140 - ^ =  $23 $T0 5144 - ^ = 
STACK WIN 4 938a 9b 0 0 10 c 1410 0 1 $T0 $ebp = $eip $T0 4 + ^ = $ebp $T0 ^ = $esp $T0 8 + =  $20 $T0 5140 - ^ =  $23 $T0 5144 - ^ =  $24 $T0 5148 - ^ = 
STACK WIN 4 9432 ee 37 0 10 0 1410 0 1 $T0 $ebp = $eip $T0 4 + ^ = $ebp $T0 ^ = $esp $T0 8 + = 
STACK WIN 4 945a bd f 0 10 4 1410 0 1 $T0 $ebp = $eip $T0 4 + ^ = $ebp $T0 ^ = $esp $T0 8 + =  $20 $T0 5140 - ^ = 
STACK WIN 4 9465 af 4 0 10 8 1410 0 1 $T0 $ebp = $eip $T0 4 + ^ = $ebp $T0 ^ = $esp $T0 8 + =  $20 $T0 5140 - ^ =  $23 $T0 5144 - ^ = 
STACK WIN 4 9469 aa 0 0 10 c 1410 0 1 $T0 $ebp = $eip $T0 4 + ^ = $ebp $T0 ^ = $esp $T0 8 + =  $20 $T0 5140 - ^ =  $23 $T0 5144 - ^ =  $24 $T0 5148 - ^ = 
STACK WIN 4 9520 12d 36 0 10 0 1418 0 1 $T0 $ebp = $eip $T0 4 + ^ = $ebp $T0 ^ = $esp $T0 8 + = 
STACK WIN 4 9548 fc e 0 10 4 1418 0 1 $T0 $ebp = $eip $T0 4 + ^ = $ebp $T0 ^ = $esp $T0 8 + =  $20 $T0 5148 - ^ = 
STACK WIN 4 9549 f8 d 0 10 8 1418 0 1 $T0 $ebp = $eip $T0 4 + ^ = $ebp $T0 ^ = $esp $T0 8 + =  $20 $T0 5148 - ^ =  $23 $T0 5152 - ^ = 
STACK WIN 4 9556 ea 0 0 10 c 1418 0 1 $T0 $ebp = $eip $T0 4 + ^ = $ebp $T0 ^ = $esp $T0 8 + =  $20 $T0 5148 - ^ =  $23 $T0 5152 - ^ =  $24 $T0 5156 - ^ = 
STACK WIN 4 964d eb c 0 c 10 24 0 1 $T0 $ebp = $eip $T0 4 + ^ = $ebp $T0 ^ = $esp $T0 8 + =  $20 $T0 40 - ^ =  $23 $T0 44 - ^ =  $24 $T0 48 - ^ = 
STACK WIN 4 9709 d 0 0 c 10 24 0 1 $T0 $ebp = $T2 $esp = $T1 .raSearchStart = $eip $T1 ^ = $ebp $T0 = $esp $T1 4 + = 
STACK WIN 4 9738 20c 1d 0 c 0 30 0 1 $T0 $ebp = $eip $T0 4 + ^ = $ebp $T0 ^ = $esp $T0 8 + = 
STACK WIN 4 9751 1ea 4 0 c 4 30 0 1 $T0 $ebp = $eip $T0 4 + ^ = $ebp $T0 ^ = $esp $T0 8 + =  $23 $T0 52 - ^ = 
STACK WIN 4 9755 1e3 0 0 c 8 30 0 1 $T0 $ebp = $eip $T0 4 + ^ = $ebp $T0 ^ = $esp $T0 8 + =  $23 $T0 52 - ^ =  $24 $T0 56 - ^ = 
STACK WIN 4 978a 1aa 0 0 c c 30 0 1 $T0 $ebp = $eip $T0 4 + ^ = $ebp $T0 ^ = $esp $T0 8 + =  $23 $T0 52 - ^ =  $24 $T0 56 - ^ =  $20 $T0 60 - ^ = 
STACK WIN 4 9bbd 7e c 0 10 0 8 0 1 $T0 $ebp = $eip $T0 4 + ^ = $ebp $T0 ^ = $esp $T0 8 + = 
STACK WIN 4 9bc5 72 4 0 10 4 8 0 1 $T0 $ebp = $eip $T0 4 + ^ = $ebp $T0 ^ = $esp $T0 8 + =  $23 $T0 12 - ^ = 
STACK WIN 4 9bc9 6d 0 0 10 8 8 0 1 $T0 $ebp = $eip $T0 4 + ^ = $ebp $T0 ^ = $esp $T0 8 + =  $23 $T0 12 - ^ =  $24 $T0 16 - ^ = 
STACK WIN 4 9c3b 1b 5 0 10 0 0 0 1 $T0 $ebp = $eip $T0 4 + ^ = $ebp $T0 ^ = $esp $T0 8 + = 
STACK WIN 4 9c56 76 6 0 4 0 0 0 1 $T0 $ebp = $eip $T0 4 + ^ = $ebp $T0 ^ = $esp $T0 8 + = 
STACK WIN 4 9c5c 6e 0 0 4 4 0 0 1 $T0 $ebp = $eip $T0 4 + ^ = $ebp $T0 ^ = $esp $T0 8 + =  $23 $T0 4 - ^ = 
STACK WIN 4 9c7c 4d 0 0 4 8 0 0 1 $T0 $ebp = $eip $T0 4 + ^ = $ebp $T0 ^ = $esp $T0 8 + =  $23 $T0 4 - ^ =  $24 $T0 8 - ^ = 
STACK WIN 4 9ccc 80 c 0 4 10 20 0 1 $T0 $ebp = $eip $T0 4 + ^ = $ebp $T0 ^ = $esp $T0 8 + =  $20 $T0 36 - ^ =  $23 $T0 40 - ^ =  $24 $T0 44 - ^ = 
STACK WIN 4 9d3f c 0 0 4 10 20 0 1 $T0 $ebp = $T2 $esp = $T1 .raSearchStart = $eip $T1 ^ = $ebp $T0 = $esp $T1 4 + = 
STACK WIN 4 9db1 45 6 0 4 0 4 0 1 $T0 $ebp = $eip $T0 4 + ^ = $ebp $T0 ^ = $esp $T0 8 + = 
STACK WIN 4 9df6 f 0 0 0 0 0 0 1 $T0 .raSearch = $eip $T0 ^ = $esp $T0 4 + = 
STACK WIN 4 a683 218 1b 0 10 0 24 0 1 $T0 $ebp = $eip $T0 4 + ^ = $ebp $T0 ^ = $esp $T0 8 + = 
STACK WIN 4 a69d 1f5 1 0 10 4 24 0 1 $T0 $ebp = $eip $T0 4 + ^ = $ebp $T0 ^ = $esp $T0 8 + =  $23 $T0 40 - ^ = 
STACK WIN 4 a69e 1f1 0 0 10 8 24 0 1 $T0 $ebp = $eip $T0 4 + ^ = $ebp $T0 ^ = $esp $T0 8 + =  $23 $T0 40 - ^ =  $24 $T0 44 - ^ = 
STACK WIN 4 a89b b9 9 0 8 0 8 0 1 $T0 $ebp = $eip $T0 4 + ^ = $ebp $T0 ^ = $esp $T0 8 + = 
STACK WIN 4 a8a3 ad 1 0 8 4 8 0 1 $T0 $ebp = $eip $T0 4 + ^ = $ebp $T0 ^ = $esp $T0 8 + =  $20 $T0 12 - ^ = 
STACK WIN 4 a8a4 ab 0 0 8 8 8 0 1 $T0 $ebp = $eip $T0 4 + ^ = $ebp $T0 ^ = $esp $T0 8 + =  $20 $T0 12 - ^ =  $23 $T0 16 - ^ = 
STACK WIN 4 a954 82 c 0 c 10 1c 0 1 $T0 $ebp = $eip $T0 4 + ^ = $ebp $T0 ^ = $esp $T0 8 + =  $20 $T0 32 - ^ =  $23 $T0 36 - ^ =  $24 $T0 40 - ^ = 
STACK WIN 4 a9c7 e 0 0 c 10 1c 0 1 $T0 $ebp = $T2 $esp = $T1 .raSearchStart = $eip $T1 ^ = $ebp $T0 = $esp $T1 4 + = 
STACK WIN 4 a9d6 28 8 0 8 0 c 0 1 $T0 $ebp = $eip $T0 4 + ^ = $ebp $T0 ^ = $esp $T0 8 + = 
STACK WIN 4 a9fe 7f 7 0 4 0 4 0 1 $T0 $ebp = $eip $T0 4 + ^ = $ebp $T0 ^ = $esp $T0 8 + = 
STACK WIN 4 aa05 74 0 0 4 4 4 0 1 $T0 $ebp = $eip $T0 4 + ^ = $ebp $T0 ^ = $esp $T0 8 + =  $23 $T0 8 - ^ = 
STACK WIN 4 aa7d 9c 7 0 4 0 0 0 1 $T0 $ebp = $eip $T0 4 + ^ = $ebp $T0 ^ = $esp $T0 8 + = 
STACK WIN 4 aa83 94 1 0 4 4 0 0 1 $T0 $ebp = $eip $T0 4 + ^ = $ebp $T0 ^ = $esp $T0 8 + =  $23 $T0 4 - ^ = 
STACK WIN 4 aa84 92 0 0 4 8 0 0 1 $T0 $ebp = $eip $T0 4 + ^ = $ebp $T0 ^ = $esp $T0 8 + =  $23 $T0 4 - ^ =  $24 $T0 8 - ^ = 
STACK WIN 4 ab19 3b 5 0 4 0 0 0 1 $T0 $ebp = $eip $T0 4 + ^ = $ebp $T0 ^ = $esp $T0 8 + = 
STACK WIN 4 ab54 1f 0 0 0 0 0 0 1 $T0 .raSearch = $eip $T0 ^ = $esp $T0 4 + = 
STACK WIN 4 ab73 17 0 0 0 0 0 0 1 $T0 .raSearch = $eip $T0 ^ = $esp $T0 4 + = 
STACK WIN 4 ab8a 6a 7 0 8 0 8 0 1 $T0 $ebp = $eip $T0 4 + ^ = $ebp $T0 ^ = $esp $T0 8 + = 
STACK WIN 4 abf4 12b 5 0 14 0 0 0 1 $T0 $ebp = $eip $T0 4 + ^ = $ebp $T0 ^ = $esp $T0 8 + = 
STACK WIN 4 ad1f 10b 2f 0 c 8 88 0 1 $T0 $ebp = $T1 $ebx = $eip $T1 4 + ^ = $ebx $T1 ^ = $esp $T1 8 + = $ebp $ebp ^ =  $23 $T0 140 - ^ =  $24 $T0 144 - ^ = 
STACK WIN 4 ae2a 16 7 0 8 0 8 0 1 $T0 $ebp = $eip $T0 4 + ^ = $ebp $T0 ^ = $esp $T0 8 + = 
STACK WIN 4 ae40 34 5 0 4 0 0 0 1 $T0 $ebp = $eip $T0 4 + ^ = $ebp $T0 ^ = $esp $T0 8 + = 
STACK WIN 4 ae74 ce 2f 0 1c 8 88 0 1 $T0 $ebp = $T1 $ebx = $eip $T1 4 + ^ = $ebx $T1 ^ = $esp $T1 8 + = $ebp $ebp ^ =  $23 $T0 140 - ^ =  $24 $T0 144 - ^ = 
STACK WIN 4 af45 1e0 d 0 c 0 10 0 1 $T0 $ebp = $eip $T0 4 + ^ = $ebp $T0 ^ = $esp $T0 8 + = 
STACK WIN 4 af4e 1d3 4 0 c 4 10 0 1 $T0 $ebp = $eip $T0 4 + ^ = $ebp $T0 ^ = $esp $T0 8 + =  $20 $T0 20 - ^ = 
STACK WIN 4 af52 1cb 0 0 c 8 10 0 1 $T0 $ebp = $eip $T0 4 + ^ = $ebp $T0 ^ = $esp $T0 8 + =  $20 $T0 20 - ^ =  $23 $T0 24 - ^ = 
STACK WIN 4 b042 b3 0 0 c c 10 0 1 $T0 $ebp = $eip $T0 4 + ^ = $ebp $T0 ^ = $esp $T0 8 + =  $20 $T0 20 - ^ =  $23 $T0 24 - ^ =  $24 $T0 28 - ^ = 
STACK WIN 4 b125 23 5 0 18 0 0 0 1 $T0 $ebp = $eip $T0 4 + ^ = $ebp $T0 ^ = $esp $T0 8 + = 
STACK WIN 4 b148 2f1 15 0 1c 0 0 0 1 $T0 $ebp = $eip $T0 4 + ^ = $ebp $T0 ^ = $esp $T0 8 + = 
STACK WIN 4 b153 2e4 a 0 1c 4 0 0 1 $T0 $ebp = $eip $T0 4 + ^ = $ebp $T0 ^ = $esp $T0 8 + =  $20 $T0 4 - ^ = 
STACK WIN 4 b15d 2d9 0 0 1c 8 0 0 1 $T0 $ebp = $eip $T0 4 + ^ = $ebp $T0 ^ = $esp $T0 8 + =  $20 $T0 4 - ^ =  $24 $T0 8 - ^ = 
STACK WIN 4 b1c6 261 0 0 1c c 0 0 1 $T0 $ebp = $eip $T0 4 + ^ = $ebp $T0 ^ = $esp $T0 8 + =  $20 $T0 4 - ^ =  $24 $T0 8 - ^ =  $23 $T0 12 - ^ = 
STACK WIN 4 b439 2f 5 0 4 0 0 0 1 $T0 $ebp = $eip $T0 4 + ^ = $ebp $T0 ^ = $esp $T0 8 + = 
STACK WIN 4 b468 a2 b 0 24 0 20 0 1 $T0 $ebp = $eip $T0 4 + ^ = $ebp $T0 ^ = $esp $T0 8 + = 
STACK WIN 4 b4ac 3d 0 0 24 4 20 0 1 $T0 $ebp = $eip $T0 4 + ^ = $ebp $T0 ^ = $esp $T0 8 + =  $23 $T0 36 - ^ = 
STACK WIN 4 b50a d4 f 0 c 0 0 0 1 $T0 $ebp = $eip $T0 4 + ^ = $ebp $T0 ^ = $esp $T0 8 + = 
STACK WIN 4 b519 c3 0 0 c 4 0 0 1 $T0 $ebp = $eip $T0 4 + ^ = $ebp $T0 ^ = $esp $T0 8 + =  $24 $T0 4 - ^ = 
STACK WIN 4 b528 ae 0 0 c 8 0 0 1 $T0 $ebp = $eip $T0 4 + ^ = $ebp $T0 ^ = $esp $T0 8 + =  $24 $T0 4 - ^ =  $23 $T0 8 - ^ = 
STACK WIN 4 b5de 2f 7 0 c 0 8 0 1 $T0 $ebp = $eip $T0 4 + ^ = $ebp $T0 ^ = $esp $T0 8 + = 
STACK WIN 4 b60d 5e 5 0 8 0 0 0 1 $T0 $ebp = $eip $T0 4 + ^ = $ebp $T0 ^ = $esp $T0 8 + = 
STACK WIN 4 b66b a4 5 0 8 0 0 0 1 $T0 $ebp = $eip $T0 4 + ^ = $ebp $T0 ^ = $esp $T0 8 + = 
STACK WIN 4 b710 43 b 0 8 0 0 0 1 $T0 $ebp = $eip $T0 4 + ^ = $ebp $T0 ^ = $esp $T0 8 + = 
STACK WIN 4 b719 38 2 0 8 4 0 0 1 $T0 $ebp = $eip $T0 4 + ^ = $ebp $T0 ^ = $esp $T0 8 + =  $20 $T0 4 - ^ = 
STACK WIN 4 b71a 36 1 0 8 8 0 0 1 $T0 $ebp = $eip $T0 4 + ^ = $ebp $T0 ^ = $esp $T0 8 + =  $20 $T0 4 - ^ =  $23 $T0 8 - ^ = 
STACK WIN 4 b71b 34 0 0 8 c 0 0 1 $T0 $ebp = $eip $T0 4 + ^ = $ebp $T0 ^ = $esp $T0 8 + =  $20 $T0 4 - ^ =  $23 $T0 8 - ^ =  $24 $T0 12 - ^ = 
STACK WIN 4 b760 ba 33 0 4 10 18 0 1 $T0 $ebp = $eip $T0 4 + ^ = $ebp $T0 ^ = $esp $T0 8 + =  $20 $T0 28 - ^ =  $23 $T0 32 - ^ =  $24 $T0 36 - ^ = 
STACK WIN 4 b7e9 13 0 0 4 10 18 0 1 $T0 $ebp = $T2 $esp = $T1 .raSearchStart = $eip $T1 ^ = $ebp $T0 = $esp $T1 4 + = 
STACK WIN 4 b820 31 3 0 4 0 0 0 1 $T0 $ebp = $eip $T0 4 + ^ = $ebp $T0 ^ = $esp $T0 8 + = 
STACK WIN 0 15d5 14 0 0 0 0 0 0 0 0
STACK WIN 0 17f5 13 0 0 0 0 0 0 0 0
STACK WIN 0 22c0 15a 0 0 c 0 0 0 0 0
STACK WIN 0 27b0 90 3 0 c c 0 0 0 0
STACK WIN 0 2840 46 0 0 10 4 0 0 0 1
STACK WIN 0 28ae 17 4 0 0 10 0 0 0 1
STACK WIN 0 28c5 19 0 0 0 0 0 0 0 0
STACK WIN 0 28f7 17 1 0 8 4 0 0 0 1
STACK WIN 0 2a75 84 3 0 8 c 0 0 0 0
STACK WIN 0 2af9 23 0 0 0 0 0 0 0 0
STACK WIN 0 2b44 3 0 0 0 0 0 0 0 0
STACK WIN 0 35d7 10 0 0 0 0 0 0 0 0
STACK WIN 0 35ef c 0 0 0 0 0 0 0 0
STACK WIN 0 3823 c 0 0 0 0 0 0 0 0
STACK WIN 0 398c f 0 0 0 0 0 0 0 0
STACK WIN 0 39dd f 0 0 0 0 0 0 0 0
STACK WIN 0 3f69 4 0 0 0 0 0 0 0 0
STACK WIN 0 4223 c 0 0 0 0 0 0 0 0
STACK WIN 0 4284 c 0 0 0 0 0 0 0 0
STACK WIN 0 42cf c 0 0 0 0 0 0 0 0
STACK WIN 0 4317 c 0 0 0 0 0 0 0 0
STACK WIN 0 4eb9 c 0 0 0 0 0 0 0 0
STACK WIN 0 53d7 c 0 0 0 0 0 0 0 0
STACK WIN 0 6244 c 0 0 0 0 0 0 0 0
STACK WIN 0 6547 c 0 0 0 0 0 0 0 0
STACK WIN 0 6c96 c 0 0 0 0 0 0 0 0
STACK WIN 0 6f2c c 0 0 0 0 0 0 0 0
STACK WIN 0 6f83 f 0 0 0 0 0 0 0 0
STACK WIN 0 7261 1e 0 0 0 0 0 0 0 0
STACK WIN 0 88ed 10 0 0 0 0 0 0 0 0
STACK WIN 0 891a c 0 0 0 0 0 0 0 0
STACK WIN 0 8955 1c 0 0 0 0 0 0 0 0
STACK WIN 0 8b18 9 0 0 0 0 0 0 0 0
STACK WIN 0 9017 f 0 0 0 0 0 0 0 0
STACK WIN 0 9709 e 0 0 0 0 0 0 0 0
STACK WIN 0 9d3f d 0 0 0 0 0 0 0 0
STACK WIN 0 a9c7 f 0 0 0 0 0 0 0 0
STACK WIN 0 b7e9 13 0 0 0 0 0 0 0 0
STACK WIN 0 b860 95 0 0 10 0 4 0 0 0
STACK WIN 0 b960 1a 0 0 10 0 0 0 0 0
STACK WIN 0 b97a 1a 0 0 10 0 4 0 0 0
STACK WIN 0 b9d0 df 0 0 10 0 c 0 0 1
STACK WIN 0 bab0 1f 0 0 0 0 0 0 0 0
STACK WIN 0 bad0 1f 0 0 0 0 0 0 0 0
STACK WIN 0 bbf2 572 2 0 c 8 0 0 0 0
STACK WIN 0 c170 12b 0 0 8 0 0 0 0 0
STACK WIN 0 c2a2 572 2 0 c 8 0 0 0 0
STACK WIN 0 c820 137 0 0 8 0 0 0 0 0
